(lp1
(((S's3'
p2
S's2'
p3
S's1'
p4
t(S'w4'
S'w3'
S'w2'
tt(dp5
g2
(dp6
S'p_paths'
p7
(lp8
(g2
S'w4'
p9
S's2'
p10
S'p'
tp11
a(g2
g9
S's1'
S'p'
tp12
asS'edges'
p13
(lp14
(g2
g9
tp15
asS'n_paths'
p16
(lp17
ssg3
(dp18
g7
(lp19
(g3
S'w3'
p20
S's3'
p21
S'p'
tp22
a(g3
g20
S's2'
p23
S'p'
tp24
asg13
(lp25
(g3
g20
tp26
asg16
(lp27
(g3
g20
g4
S'n'
tp28
assg4
(dp29
g7
(lp30
(g4
S'w3'
p31
g21
S'p'
tp32
a(g4
g31
g23
S'p'
tp33
asg13
(lp34
(g4
g31
tp35
a(g4
S'w2'
tp36
asg16
(lp37
(g4
g31
g3
S'n'
tp38
ass(lp39
(g15
g26
g36
tp40
a(g15
g36
(g3
g20
g23
S'p'
ttp41
a(g36
(g2
g9
g10
S'p'
t(g3
g20
g21
S'p'
ttp42
aF-1
tp43
a(((S's3'
p44
S's2'
p45
S's1'
p46
t(S'w4'
S'w3'
S'w8'
tt(dp47
g44
(dp48
S'p_paths'
p49
(lp50
(g44
S'w4'
p51
S's2'
p52
S'p'
tp53
a(g44
g51
S's1'
S'p'
tp54
asS'edges'
p55
(lp56
(g44
g51
tp57
asS'n_paths'
p58
(lp59
ssg45
(dp60
g49
(lp61
(g45
S'w3'
p62
S's3'
p63
S'p'
tp64
a(g45
g62
S's2'
p65
S'p'
tp66
asg55
(lp67
(g45
g62
tp68
asg58
(lp69
(g45
g62
g46
S'n'
tp70
assg46
(dp71
g49
(lp72
(g46
S'w3'
p73
g63
S'p'
tp74
a(g46
g73
g65
S'p'
tp75
asg55
(lp76
(g46
g73
tp77
a(g46
S'w8'
tp78
asg58
(lp79
(g46
g73
g45
S'n'
tp80
ass(lp81
(g57
g68
g78
tp82
a(g57
g78
(g45
g62
g65
S'p'
ttp83
a(g78
(g44
g51
g52
S'p'
t(g45
g62
g63
S'p'
ttp84
aF-1
tp85
a(((S's3'
p86
S's2'
p87
S's7'
p88
t(S'w4'
S'w3'
S'w9'
tt(dp89
g86
(dp90
S'p_paths'
p91
(lp92
(g86
S'w4'
p93
S's2'
p94
S'p'
tp95
asS'edges'
p96
(lp97
(g86
g93
tp98
asS'n_paths'
p99
(lp100
ssg87
(dp101
g91
(lp102
(g87
S'w3'
p103
S's3'
p104
S'p'
tp105
a(g87
g103
S's2'
p106
S'p'
tp107
asg96
(lp108
(g87
g103
tp109
asg99
(lp110
ssg88
(dp111
g91
(lp112
sg96
(lp113
(g88
S'w9'
tp114
asg99
(lp115
ss(lp116
(g98
g109
g114
tp117
a(g98
g114
(g87
g103
g106
S'p'
ttp118
a(g114
(g86
g93
g94
S'p'
t(g87
g103
g104
S'p'
ttp119
aF-1
tp120
a(((S's3'
p121
S's2'
p122
S's6'
p123
t(S'w4'
S'w3'
S'w7'
tt(dp124
g121
(dp125
S'p_paths'
p126
(lp127
(g121
S'w4'
p128
S's2'
p129
S'p'
tp130
asS'edges'
p131
(lp132
(g121
g128
tp133
asS'n_paths'
p134
(lp135
ssg122
(dp136
g126
(lp137
(g122
S'w3'
p138
S's3'
p139
S'p'
tp140
a(g122
g138
S's2'
p141
S'p'
tp142
asg131
(lp143
(g122
g138
tp144
asg134
(lp145
ssg123
(dp146
g126
(lp147
(g123
S'w7'
p148
S's3'
S'p'
tp149
asg131
(lp150
(g123
g148
tp151
asg134
(lp152
ss(lp153
(g133
g144
g151
tp154
a(g133
g151
(g122
g138
g141
S'p'
ttp155
a(g151
(g121
g128
g129
S'p'
t(g122
g138
g139
S'p'
ttp156
aF-1
tp157
a(((S's3'
p158
S's2'
p159
S's5'
p160
t(S'w6'
S'w3'
S'w5'
tt(dp161
g158
(dp162
S'p_paths'
p163
(lp164
sS'edges'
p165
(lp166
(g158
S'w6'
p167
tp168
asS'n_paths'
p169
(lp170
(g158
g167
g160
S'n'
tp171
assg159
(dp172
g163
(lp173
(g159
S'w5'
p174
S's5'
p175
S'p'
tp176
a(g159
S'w3'
p177
S's3'
p178
S'p'
tp179
a(g159
g177
S's2'
p180
S'p'
tp181
asg165
(lp182
(g159
g174
tp183
a(g159
g177
tp184
asg169
(lp185
(g159
g174
g160
S'n'
tp186
assg160
(dp187
g163
(lp188
(g160
S'w5'
p189
g175
S'p'
tp190
asg165
(lp191
(g160
S'w6'
p192
tp193
a(g160
g189
tp194
asg169
(lp195
(g160
g192
g158
S'n'
tp196
a(g160
g189
g159
S'n'
tp197
ass(lp198
(g168
g184
g194
tp199
a(g168
g194
(g159
g177
g180
S'p'
tp200
tp201
a((g160
g174
g159
S'n'
t(g159
g177
g178
S'p'
t(g158
g167
g160
S'n'
ttp202
a(g168
g184
(g160
g189
g175
S'p'
tp203
tp204
a(g168
g200
g203
tp205
aF-1
tp206
a(((S's3'
p207
S's2'
p208
S's5'
p209
t(S'w4'
S'w3'
S'w6'
tt(dp210
g207
(dp211
S'p_paths'
p212
(lp213
(g207
S'w4'
p214
S's2'
p215
S'p'
tp216
asS'edges'
p217
(lp218
(g207
S'w6'
p219
tp220
a(g207
g214
tp221
asS'n_paths'
p222
(lp223
(g207
g219
g209
S'n'
tp224
assg208
(dp225
g212
(lp226
(g208
S'w3'
p227
S's3'
p228
S'p'
tp229
a(g208
g227
S's2'
p230
S'p'
tp231
asg217
(lp232
(g208
g227
tp233
asg222
(lp234
ssg209
(dp235
g212
(lp236
sg217
(lp237
(g209
S'w6'
p238
tp239
asg222
(lp240
(g209
g238
g207
S'n'
tp241
ass(lp242
(g221
g233
g239
tp243
a(g221
g239
(g208
g227
g230
S'p'
ttp244
a(g239
(g207
g214
g215
S'p'
t(g208
g227
g228
S'p'
ttp245
aF-1
tp246
a(((S's3'
p247
S's2'
p248
S's5'
p249
t(S'w4'
S'w3'
S'w8'
tt(dp250
g247
(dp251
S'p_paths'
p252
(lp253
(g247
S'w4'
p254
S's2'
p255
S'p'
tp256
asS'edges'
p257
(lp258
(g247
g254
tp259
asS'n_paths'
p260
(lp261
ssg248
(dp262
g252
(lp263
(g248
S'w3'
p264
S's3'
p265
S'p'
tp266
a(g248
g264
S's2'
p267
S'p'
tp268
asg257
(lp269
(g248
g264
tp270
asg260
(lp271
ssg249
(dp272
g252
(lp273
sg257
(lp274
(g249
S'w8'
tp275
asg260
(lp276
ss(lp277
(g259
g270
g275
tp278
a(g259
g275
(g248
g264
g267
S'p'
ttp279
a(g275
(g247
g254
g255
S'p'
t(g248
g264
g265
S'p'
ttp280
aF-1
tp281
a(((S's3'
p282
S's5'
p283
S's4'
p284
t(S'w6'
S'w5'
S'w4'
tt(dp285
g282
(dp286
S'p_paths'
p287
(lp288
sS'edges'
p289
(lp290
(g282
S'w6'
p291
tp292
a(g282
S'w4'
p293
tp294
asS'n_paths'
p295
(lp296
(g282
g291
g283
S'n'
tp297
a(g282
g293
g284
S'n'
tp298
assg283
(dp299
g287
(lp300
(g283
S'w5'
p301
S's5'
p302
S'p'
tp303
a(g283
g301
S's4'
p304
S'p'
tp305
asg289
(lp306
(g283
S'w6'
p307
tp308
a(g283
g301
tp309
asg295
(lp310
(g283
g307
g282
S'n'
tp311
assg284
(dp312
g287
(lp313
sg289
(lp314
(g284
S'w4'
p315
tp316
asg295
(lp317
(g284
g315
g282
S'n'
tp318
ass(lp319
(g292
g309
g316
tp320
a((g284
g293
g282
S'n'
t(g282
g291
g283
S'n'
t(g283
g301
g304
S'p'
ttp321
a(g292
g316
(g283
g301
g302
S'p'
ttp322
aF-1
tp323
a.