(dp1
S'constants_dict'
p2
(dp3
S'k3'
p4
I2
sS'k2'
p5
I1
sS'k1'
p6
I0
sS'k6'
p7
I5
sS'k5'
p8
I4
sS'k4'
p9
I3
ssS'complexes_dict_reverse'
p10
(dp11
I0
S'[A1]'
p12
sI1
S'[A2]'
p13
sI2
S'[A3]'
p14
sI3
S'[A4]'
p15
ssS'complexes_dict'
p16
(dp17
g14
I2
sg12
I0
sg15
I3
sg13
I1
ssS'constants_dict_reverse'
p18
(dp19
I0
g6
sI1
g5
sI2
g4
sI3
g9
sI4
g8
sI5
g7
ss.