(lp1
(((S's3'
p2
S's2'
p3
S's1'
p4
S's7'
p5
S's6'
p6
t(S'w4'
S'w3'
S'w2'
S'w9'
S'w7'
tt(dp7
g2
(dp8
S'p_paths'
p9
(lp10
(g2
S'w4'
p11
S's2'
p12
S'p'
tp13
a(g2
g11
S's1'
S'p'
tp14
asS'edges'
p15
(lp16
(g2
g11
tp17
asS'n_paths'
p18
(lp19
ssg3
(dp20
g9
(lp21
(g3
S'w3'
p22
S's3'
p23
S'p'
tp24
a(g3
g22
S's2'
p25
S'p'
tp26
asg15
(lp27
(g3
g22
tp28
asg18
(lp29
(g3
g22
g4
S'n'
tp30
assg4
(dp31
g9
(lp32
(g4
S'w3'
p33
g23
S'p'
tp34
a(g4
g33
g25
S'p'
tp35
asg15
(lp36
(g4
g33
tp37
a(g4
S'w2'
tp38
asg18
(lp39
(g4
g33
g3
S'n'
tp40
assg5
(dp41
g9
(lp42
(g5
S'w9'
p43
S's1'
S'p'
tp44
asg15
(lp45
(g5
g43
tp46
asg18
(lp47
ssg6
(dp48
g9
(lp49
(g6
S'w7'
p50
S's3'
S'p'
tp51
asg15
(lp52
(g6
g50
tp53
asg18
(lp54
ss(lp55
(g17
g28
g38
g46
g53
tp56
a(g17
g38
g46
g53
(g3
g22
g25
S'p'
ttp57
a(g38
g46
g53
(g2
g11
g12
S'p'
t(g3
g22
g23
S'p'
ttp58
aF-1
tp59
a(((S's3'
p60
S's2'
p61
S's1'
p62
S's7'
p63
S's5'
p64
t(S'w6'
S'w3'
S'w2'
S'w9'
S'w5'
tt(dp65
g60
(dp66
S'p_paths'
p67
(lp68
sS'edges'
p69
(lp70
(g60
S'w6'
p71
tp72
asS'n_paths'
p73
(lp74
(g60
g71
g64
S'n'
tp75
assg61
(dp76
g67
(lp77
(g61
S'w5'
p78
S's5'
p79
S'p'
tp80
a(g61
S'w3'
p81
S's3'
p82
S'p'
tp83
a(g61
g81
S's2'
p84
S'p'
tp85
asg69
(lp86
(g61
g78
tp87
a(g61
g81
tp88
asg73
(lp89
(g61
g78
g64
S'n'
tp90
a(g61
g81
g62
S'n'
tp91
assg62
(dp92
g67
(lp93
(g62
S'w3'
p94
g82
S'p'
tp95
a(g62
g94
g84
S'p'
tp96
asg69
(lp97
(g62
g94
tp98
a(g62
S'w2'
tp99
asg73
(lp100
(g62
g94
g61
S'n'
tp101
assg63
(dp102
g67
(lp103
(g63
S'w9'
p104
S's1'
S'p'
tp105
a(g63
g104
S's5'
S'p'
tp106
asg69
(lp107
(g63
g104
tp108
asg73
(lp109
ssg64
(dp110
g67
(lp111
(g64
S'w5'
p112
g79
S'p'
tp113
asg69
(lp114
(g64
S'w6'
p115
tp116
a(g64
g112
tp117
asg73
(lp118
(g64
g115
g60
S'n'
tp119
a(g64
g112
g61
S'n'
tp120
ass(lp121
(g72
g88
g99
g108
g117
tp122
a(g72
g99
g108
g117
(g61
g81
g84
S'p'
tp123
tp124
a(g99
g108
(g64
g78
g61
S'n'
t(g61
g81
g82
S'p'
t(g60
g71
g64
S'n'
ttp125
a(g72
g88
g99
g108
(g64
g112
g79
S'p'
tp126
tp127
a(g72
g99
g108
g123
g126
tp128
aF-1
tp129
a(((S's3'
p130
S's2'
p131
S's1'
p132
S's7'
p133
S's5'
p134
t(S'w4'
S'w3'
S'w2'
S'w9'
S'w6'
tt(dp135
g130
(dp136
S'p_paths'
p137
(lp138
(g130
S'w4'
p139
S's2'
p140
S'p'
tp141
a(g130
g139
S's1'
S'p'
tp142
asS'edges'
p143
(lp144
(g130
S'w6'
p145
tp146
a(g130
g139
tp147
asS'n_paths'
p148
(lp149
(g130
g145
g134
S'n'
tp150
assg131
(dp151
g137
(lp152
(g131
S'w3'
p153
S's3'
p154
S'p'
tp155
a(g131
g153
S's2'
p156
S'p'
tp157
asg143
(lp158
(g131
g153
tp159
asg148
(lp160
(g131
g153
g132
S'n'
tp161
assg132
(dp162
g137
(lp163
(g132
S'w3'
p164
g154
S'p'
tp165
a(g132
g164
g156
S'p'
tp166
asg143
(lp167
(g132
g164
tp168
a(g132
S'w2'
tp169
asg148
(lp170
(g132
g164
g131
S'n'
tp171
assg133
(dp172
g137
(lp173
(g133
S'w9'
p174
S's1'
S'p'
tp175
a(g133
g174
S's5'
S'p'
tp176
asg143
(lp177
(g133
g174
tp178
asg148
(lp179
ssg134
(dp180
g137
(lp181
sg143
(lp182
(g134
S'w6'
p183
tp184
asg148
(lp185
(g134
g183
g130
S'n'
tp186
ass(lp187
(g147
g159
g169
g178
g184
tp188
a(g147
g169
g178
g184
(g131
g153
g156
S'p'
ttp189
a(g169
g178
g184
(g130
g139
g140
S'p'
t(g131
g153
g154
S'p'
ttp190
aF-1
tp191
a(((S's3'
p192
S's2'
p193
S's1'
p194
S's6'
p195
S's5'
p196
t(S'w4'
S'w3'
S'w2'
S'w7'
S'w8'
tt(dp197
g192
(dp198
S'p_paths'
p199
(lp200
(g192
S'w4'
p201
S's2'
p202
S'p'
tp203
a(g192
g201
S's1'
S'p'
tp204
asS'edges'
p205
(lp206
(g192
g201
tp207
asS'n_paths'
p208
(lp209
ssg193
(dp210
g199
(lp211
(g193
S'w3'
p212
S's3'
p213
S'p'
tp214
a(g193
g212
S's2'
p215
S'p'
tp216
asg205
(lp217
(g193
g212
tp218
asg208
(lp219
(g193
g212
g194
S'n'
tp220
assg194
(dp221
g199
(lp222
(g194
S'w3'
p223
g213
S'p'
tp224
a(g194
g223
g215
S'p'
tp225
asg205
(lp226
(g194
g223
tp227
a(g194
S'w2'
tp228
a(g194
S'w8'
p229
tp230
asg208
(lp231
(g194
g223
g193
S'n'
tp232
a(g194
g229
g196
S'n'
tp233
assg195
(dp234
g199
(lp235
(g195
S'w7'
p236
S's3'
S'p'
tp237
a(g195
g236
S's5'
S'p'
tp238
asg205
(lp239
(g195
g236
tp240
asg208
(lp241
ssg196
(dp242
g199
(lp243
sg205
(lp244
(g196
S'w8'
p245
tp246
asg208
(lp247
(g196
g245
g194
S'n'
tp248
ass(lp249
(g207
g218
g228
g240
g246
tp250
a(g207
g228
g240
g246
(g193
g212
g215
S'p'
ttp251
a(g228
g240
g246
(g192
g201
g202
S'p'
t(g193
g212
g213
S'p'
ttp252
aF-1
tp253
a(((S's3'
p254
S's1'
p255
S's7'
p256
S's5'
p257
S's4'
p258
t(S'w6'
S'w2'
S'w9'
S'w5'
S'w4'
tt(dp259
g254
(dp260
S'p_paths'
p261
(lp262
(g254
S'w4'
p263
S's1'
p264
S'p'
tp265
asS'edges'
p266
(lp267
(g254
S'w6'
p268
tp269
a(g254
g263
tp270
asS'n_paths'
p271
(lp272
(g254
g268
g257
S'n'
tp273
a(g254
g263
g258
S'n'
tp274
assg255
(dp275
g261
(lp276
sg266
(lp277
(g255
S'w2'
tp278
asg271
(lp279
ssg256
(dp280
g261
(lp281
(g256
S'w9'
p282
S's1'
S'p'
tp283
a(g256
g282
S's5'
S'p'
tp284
asg266
(lp285
(g256
g282
tp286
asg271
(lp287
ssg257
(dp288
g261
(lp289
(g257
S'w5'
p290
S's5'
p291
S'p'
tp292
a(g257
g290
S's4'
p293
S'p'
tp294
asg266
(lp295
(g257
S'w6'
p296
tp297
a(g257
g290
tp298
asg271
(lp299
(g257
g296
g254
S'n'
tp300
assg258
(dp301
g261
(lp302
(g258
S'w4'
p303
g264
S'p'
tp304
asg266
(lp305
(g258
g303
tp306
asg271
(lp307
(g258
g303
g254
S'n'
tp308
ass(lp309
(g269
g278
g286
g298
g306
tp310
a(g278
g286
(g258
g263
g254
S'n'
t(g254
g268
g257
S'n'
t(g257
g290
g293
S'p'
ttp311
a(g269
g278
g286
g306
(g257
g290
g291
S'p'
ttp312
aF-1
tp313
a.