(lp1
(((S's8'
p2
S's3'
p3
S's2'
p4
S's7'
p5
S's4'
p6
t(S'w11'
S'w3'
S'w2'
S'w10'
S'w6'
tt(dp7
g3
(dp8
S'p_paths'
p9
(lp10
(g3
S'w3'
p11
S's4'
p12
S'p'
tp13
asS'edges'
p14
(lp15
(g3
g11
tp16
asS'n_paths'
p17
(lp18
(g3
g11
g4
S'n'
tp19
assg4
(dp20
g9
(lp21
(g4
S'w3'
p22
g12
S'p'
tp23
asg14
(lp24
(g4
g22
tp25
a(g4
S'w2'
tp26
asg17
(lp27
(g4
g22
g3
S'n'
tp28
assg2
(dp29
g9
(lp30
sg14
(lp31
(g2
S'w11'
tp32
asg17
(lp33
ssg5
(dp34
g9
(lp35
sg14
(lp36
(g5
S'w10'
tp37
asg17
(lp38
ssg6
(dp39
g9
(lp40
(g6
S'w6'
p41
S's3'
p42
S'p'
tp43
a(g6
g41
S's4'
p44
S'p'
tp45
asg14
(lp46
(g6
g41
tp47
asg17
(lp48
ss(lp49
(g16
g26
g32
g37
g47
tp50
a(g26
g32
g37
(g6
g41
g42
S'p'
t(g3
g11
g12
S'p'
ttp51
a(g16
g26
g32
g37
(g6
g41
g44
S'p'
ttp52
aF-1
tp53
a(((S's8'
p54
S's3'
p55
S's2'
p56
S's7'
p57
S's4'
p58
t(S'w11'
S'w8'
S'w5'
S'w10'
S'w4'
tt(dp59
g55
(dp60
S'p_paths'
p61
(lp62
(g55
S'w8'
p63
S's4'
p64
S'p'
tp65
asS'edges'
p66
(lp67
(g55
g63
tp68
asS'n_paths'
p69
(lp70
ssg56
(dp71
g61
(lp72
(g56
S'w5'
p73
S's3'
p74
S'p'
tp75
a(g56
g73
S's2'
p76
S'p'
tp77
asg66
(lp78
(g56
g73
tp79
asg69
(lp80
ssg54
(dp81
g61
(lp82
sg66
(lp83
(g54
S'w11'
tp84
asg69
(lp85
ssg57
(dp86
g61
(lp87
sg66
(lp88
(g57
S'w10'
tp89
asg69
(lp90
ssg58
(dp91
g61
(lp92
(g58
S'w4'
p93
S's3'
p94
S'p'
tp95
a(g58
g93
S's2'
p96
S'p'
tp97
asg66
(lp98
(g58
g93
tp99
asg69
(lp100
ss(lp101
(g68
g79
g84
g89
g99
tp102
a(g68
g84
g89
g99
(g56
g73
g76
S'p'
tp103
tp104
a(g84
g89
(g58
g93
g96
S'p'
t(g56
g73
g74
S'p'
t(g55
g63
g64
S'p'
tp105
tp106
a(g79
g84
g89
(g58
g93
g94
S'p'
tp107
g105
tp108
a(g84
g89
g103
g107
g105
tp109
aF-1
tp110
a(((S's8'
p111
S's3'
p112
S's2'
p113
S's7'
p114
S's4'
p115
t(S'w11'
S'w8'
S'w3'
S'w10'
S'w6'
tt(dp116
g112
(dp117
S'p_paths'
p118
(lp119
(g112
S'w3'
p120
S's4'
p121
S'p'
tp122
a(g112
S'w8'
p123
S's4'
p124
S'p'
tp125
asS'edges'
p126
(lp127
(g112
g120
tp128
a(g112
g123
tp129
asS'n_paths'
p130
(lp131
(g112
g120
g113
S'n'
tp132
assg113
(dp133
g118
(lp134
(g113
S'w3'
p135
g121
S'p'
tp136
asg126
(lp137
(g113
g135
tp138
asg130
(lp139
(g113
g135
g112
S'n'
tp140
assg111
(dp141
g118
(lp142
sg126
(lp143
(g111
S'w11'
tp144
asg130
(lp145
ssg114
(dp146
g118
(lp147
sg126
(lp148
(g114
S'w10'
tp149
asg130
(lp150
ssg115
(dp151
g118
(lp152
(g115
S'w6'
p153
S's3'
p154
S'p'
tp155
a(g115
g153
S's4'
p156
S'p'
tp157
asg126
(lp158
(g115
g153
tp159
asg130
(lp160
ss(lp161
(g129
g138
g144
g149
g159
tp162
a(g138
g144
g149
(g112
g123
g124
S'p'
t(g115
g153
g154
S'p'
ttp163
a(g129
g138
g144
g149
(g115
g153
g156
S'p'
ttp164
aF-1
tp165
a(((S's8'
p166
S's3'
p167
S's2'
p168
S's7'
p169
S's4'
p170
t(S'w11'
S'w8'
S'w2'
S'w10'
S'w6'
tt(dp171
g167
(dp172
S'p_paths'
p173
(lp174
(g167
S'w8'
p175
S's4'
p176
S'p'
tp177
asS'edges'
p178
(lp179
(g167
g175
tp180
asS'n_paths'
p181
(lp182
ssg168
(dp183
g173
(lp184
sg178
(lp185
(g168
S'w2'
tp186
asg181
(lp187
ssg166
(dp188
g173
(lp189
sg178
(lp190
(g166
S'w11'
tp191
asg181
(lp192
ssg169
(dp193
g173
(lp194
sg178
(lp195
(g169
S'w10'
tp196
asg181
(lp197
ssg170
(dp198
g173
(lp199
(g170
S'w6'
p200
S's3'
p201
S'p'
tp202
a(g170
g200
S's4'
p203
S'p'
tp204
asg178
(lp205
(g170
g200
tp206
asg181
(lp207
ss(lp208
(g180
g186
g191
g196
g206
tp209
a(g186
g191
g196
(g167
g175
g176
S'p'
t(g170
g200
g201
S'p'
ttp210
a(g180
g186
g191
g196
(g170
g200
g203
S'p'
ttp211
aF-1
tp212
a(((S's8'
p213
S's3'
p214
S's2'
p215
S's6'
p216
S's4'
p217
t(S'w11'
S'w3'
S'w2'
S'w9'
S'w6'
tt(dp218
g214
(dp219
S'p_paths'
p220
(lp221
(g214
S'w3'
p222
S's4'
p223
S'p'
tp224
asS'edges'
p225
(lp226
(g214
g222
tp227
asS'n_paths'
p228
(lp229
(g214
g222
g215
S'n'
tp230
assg215
(dp231
g220
(lp232
(g215
S'w3'
p233
g223
S'p'
tp234
asg225
(lp235
(g215
g233
tp236
a(g215
S'w2'
tp237
asg228
(lp238
(g215
g233
g214
S'n'
tp239
assg213
(dp240
g220
(lp241
(g213
S'w11'
p242
S's6'
S'p'
tp243
asg225
(lp244
(g213
g242
tp245
asg228
(lp246
ssg216
(dp247
g220
(lp248
sg225
(lp249
(g216
S'w9'
tp250
asg228
(lp251
ssg217
(dp252
g220
(lp253
(g217
S'w6'
p254
S's3'
p255
S'p'
tp256
a(g217
g254
S's4'
p257
S'p'
tp258
asg225
(lp259
(g217
g254
tp260
asg228
(lp261
ss(lp262
(g227
g237
g245
g250
g260
tp263
a(g237
g245
g250
(g217
g254
g255
S'p'
t(g214
g222
g223
S'p'
ttp264
a(g227
g237
g245
g250
(g217
g254
g257
S'p'
ttp265
aF-1
tp266
a(((S's8'
p267
S's3'
p268
S's2'
p269
S's6'
p270
S's4'
p271
t(S'w11'
S'w8'
S'w5'
S'w9'
S'w4'
tt(dp272
g268
(dp273
S'p_paths'
p274
(lp275
(g268
S'w8'
p276
S's4'
p277
S'p'
tp278
asS'edges'
p279
(lp280
(g268
g276
tp281
asS'n_paths'
p282
(lp283
ssg269
(dp284
g274
(lp285
(g269
S'w5'
p286
S's3'
p287
S'p'
tp288
a(g269
g286
S's2'
p289
S'p'
tp290
asg279
(lp291
(g269
g286
tp292
asg282
(lp293
ssg267
(dp294
g274
(lp295
(g267
S'w11'
p296
S's6'
S'p'
tp297
asg279
(lp298
(g267
g296
tp299
asg282
(lp300
ssg270
(dp301
g274
(lp302
sg279
(lp303
(g270
S'w9'
tp304
asg282
(lp305
ssg271
(dp306
g274
(lp307
(g271
S'w4'
p308
S's3'
p309
S'p'
tp310
a(g271
g308
S's2'
p311
S'p'
tp312
asg279
(lp313
(g271
g308
tp314
asg282
(lp315
ss(lp316
(g281
g292
g299
g304
g314
tp317
a(g281
g299
g304
g314
(g269
g286
g289
S'p'
tp318
tp319
a(g292
g299
g304
(g268
g276
g277
S'p'
tp320
(g271
g308
g309
S'p'
tp321
tp322
a(g299
g304
(g271
g308
g311
S'p'
t(g269
g286
g287
S'p'
tg320
tp323
a(g299
g304
g318
g320
g321
tp324
aF-1
tp325
a(((S's8'
p326
S's3'
p327
S's2'
p328
S's6'
p329
S's4'
p330
t(S'w11'
S'w8'
S'w3'
S'w9'
S'w6'
tt(dp331
g327
(dp332
S'p_paths'
p333
(lp334
(g327
S'w3'
p335
S's4'
p336
S'p'
tp337
a(g327
S'w8'
p338
S's4'
p339
S'p'
tp340
asS'edges'
p341
(lp342
(g327
g335
tp343
a(g327
g338
tp344
asS'n_paths'
p345
(lp346
(g327
g335
g328
S'n'
tp347
assg328
(dp348
g333
(lp349
(g328
S'w3'
p350
g336
S'p'
tp351
asg341
(lp352
(g328
g350
tp353
asg345
(lp354
(g328
g350
g327
S'n'
tp355
assg326
(dp356
g333
(lp357
(g326
S'w11'
p358
S's6'
S'p'
tp359
asg341
(lp360
(g326
g358
tp361
asg345
(lp362
ssg329
(dp363
g333
(lp364
sg341
(lp365
(g329
S'w9'
tp366
asg345
(lp367
ssg330
(dp368
g333
(lp369
(g330
S'w6'
p370
S's3'
p371
S'p'
tp372
a(g330
g370
S's4'
p373
S'p'
tp374
asg341
(lp375
(g330
g370
tp376
asg345
(lp377
ss(lp378
(g344
g353
g361
g366
g376
tp379
a(g353
g361
g366
(g327
g338
g339
S'p'
t(g330
g370
g371
S'p'
ttp380
a(g344
g353
g361
g366
(g330
g370
g373
S'p'
ttp381
aF-1
tp382
a(((S's8'
p383
S's3'
p384
S's2'
p385
S's6'
p386
S's4'
p387
t(S'w11'
S'w8'
S'w2'
S'w9'
S'w6'
tt(dp388
g384
(dp389
S'p_paths'
p390
(lp391
(g384
S'w8'
p392
S's4'
p393
S'p'
tp394
asS'edges'
p395
(lp396
(g384
g392
tp397
asS'n_paths'
p398
(lp399
ssg385
(dp400
g390
(lp401
sg395
(lp402
(g385
S'w2'
tp403
asg398
(lp404
ssg383
(dp405
g390
(lp406
(g383
S'w11'
p407
S's6'
S'p'
tp408
asg395
(lp409
(g383
g407
tp410
asg398
(lp411
ssg386
(dp412
g390
(lp413
sg395
(lp414
(g386
S'w9'
tp415
asg398
(lp416
ssg387
(dp417
g390
(lp418
(g387
S'w6'
p419
S's3'
p420
S'p'
tp421
a(g387
g419
S's4'
p422
S'p'
tp423
asg395
(lp424
(g387
g419
tp425
asg398
(lp426
ss(lp427
(g397
g403
g410
g415
g425
tp428
a(g403
g410
g415
(g384
g392
g393
S'p'
t(g387
g419
g420
S'p'
ttp429
a(g397
g403
g410
g415
(g387
g419
g422
S'p'
ttp430
aF-1
tp431
a(((S's8'
p432
S's3'
p433
S's2'
p434
S's5'
p435
S's4'
p436
t(S'w11'
S'w3'
S'w2'
S'w10'
S'w6'
tt(dp437
g433
(dp438
S'p_paths'
p439
(lp440
(g433
S'w3'
p441
S's4'
p442
S'p'
tp443
asS'edges'
p444
(lp445
(g433
g441
tp446
asS'n_paths'
p447
(lp448
(g433
g441
g434
S'n'
tp449
assg434
(dp450
g439
(lp451
(g434
S'w3'
p452
g442
S'p'
tp453
asg444
(lp454
(g434
g452
tp455
a(g434
S'w2'
tp456
asg447
(lp457
(g434
g452
g433
S'n'
tp458
assg432
(dp459
g439
(lp460
sg444
(lp461
(g432
S'w11'
tp462
asg447
(lp463
ssg435
(dp464
g439
(lp465
(g435
S'w6'
p466
S's3'
p467
S'p'
tp468
a(g435
g466
S's4'
p469
S'p'
tp470
asg444
(lp471
(g435
g466
tp472
a(g435
S'w10'
tp473
asg447
(lp474
(g435
g466
g436
S'n'
tp475
assg436
(dp476
g439
(lp477
(g436
S'w6'
p478
g467
S'p'
tp479
a(g436
g478
g469
S'p'
tp480
asg444
(lp481
(g436
g478
tp482
asg447
(lp483
(g436
g478
g435
S'n'
tp484
ass(lp485
(g446
g456
g462
g473
g482
tp486
a(g456
g462
g473
(g436
g478
g467
S'p'
t(g433
g441
g442
S'p'
ttp487
a(g446
g456
g462
g473
(g436
g478
g469
S'p'
ttp488
aF-1
tp489
a(((S's8'
p490
S's3'
p491
S's2'
p492
S's5'
p493
S's4'
p494
t(S'w11'
S'w8'
S'w5'
S'w10'
S'w4'
tt(dp495
g491
(dp496
S'p_paths'
p497
(lp498
(g491
S'w8'
p499
S's4'
p500
S'p'
tp501
asS'edges'
p502
(lp503
(g491
g499
tp504
asS'n_paths'
p505
(lp506
ssg492
(dp507
g497
(lp508
(g492
S'w5'
p509
S's3'
p510
S'p'
tp511
a(g492
g509
S's2'
p512
S'p'
tp513
asg502
(lp514
(g492
g509
tp515
asg505
(lp516
(g492
g509
g493
S'n'
tp517
assg490
(dp518
g497
(lp519
sg502
(lp520
(g490
S'w11'
tp521
asg505
(lp522
ssg493
(dp523
g497
(lp524
(g493
S'w5'
p525
g510
S'p'
tp526
a(g493
g525
g512
S'p'
tp527
asg502
(lp528
(g493
g525
tp529
a(g493
S'w10'
tp530
asg505
(lp531
(g493
g525
g492
S'n'
tp532
assg494
(dp533
g497
(lp534
(g494
S'w4'
p535
S's3'
p536
S'p'
tp537
a(g494
g535
S's2'
p538
S'p'
tp539
asg502
(lp540
(g494
g535
tp541
asg505
(lp542
ss(lp543
(g504
g515
g521
g530
g541
tp544
a(g504
g521
g530
g541
(g492
g509
g512
S'p'
tp545
tp546
a(g521
g530
(g491
g499
g500
S'p'
tp547
(g494
g535
g538
S'p'
t(g492
g509
g510
S'p'
ttp548
a(g515
g521
g530
g547
(g494
g535
g536
S'p'
tp549
tp550
a(g521
g530
g545
g547
g549
tp551
aF-1
tp552
a(((S's8'
p553
S's3'
p554
S's2'
p555
S's5'
p556
S's4'
p557
t(S'w11'
S'w8'
S'w3'
S'w10'
S'w6'
tt(dp558
g554
(dp559
S'p_paths'
p560
(lp561
(g554
S'w3'
p562
S's4'
p563
S'p'
tp564
a(g554
S'w8'
p565
S's4'
p566
S'p'
tp567
asS'edges'
p568
(lp569
(g554
g562
tp570
a(g554
g565
tp571
asS'n_paths'
p572
(lp573
(g554
g562
g555
S'n'
tp574
assg555
(dp575
g560
(lp576
(g555
S'w3'
p577
g563
S'p'
tp578
asg568
(lp579
(g555
g577
tp580
asg572
(lp581
(g555
g577
g554
S'n'
tp582
assg553
(dp583
g560
(lp584
sg568
(lp585
(g553
S'w11'
tp586
asg572
(lp587
ssg556
(dp588
g560
(lp589
(g556
S'w6'
p590
S's3'
p591
S'p'
tp592
a(g556
g590
S's4'
p593
S'p'
tp594
asg568
(lp595
(g556
g590
tp596
a(g556
S'w10'
tp597
asg572
(lp598
(g556
g590
g557
S'n'
tp599
assg557
(dp600
g560
(lp601
(g557
S'w6'
p602
g591
S'p'
tp603
a(g557
g602
g593
S'p'
tp604
asg568
(lp605
(g557
g602
tp606
asg572
(lp607
(g557
g602
g556
S'n'
tp608
ass(lp609
(g571
g580
g586
g597
g606
tp610
a(g580
g586
g597
(g554
g565
g566
S'p'
t(g557
g602
g591
S'p'
ttp611
a(g571
g580
g586
g597
(g557
g602
g593
S'p'
ttp612
aF-1
tp613
a(((S's8'
p614
S's3'
p615
S's2'
p616
S's5'
p617
S's4'
p618
t(S'w11'
S'w8'
S'w2'
S'w10'
S'w6'
tt(dp619
g615
(dp620
S'p_paths'
p621
(lp622
(g615
S'w8'
p623
S's4'
p624
S'p'
tp625
asS'edges'
p626
(lp627
(g615
g623
tp628
asS'n_paths'
p629
(lp630
ssg616
(dp631
g621
(lp632
sg626
(lp633
(g616
S'w2'
tp634
asg629
(lp635
ssg614
(dp636
g621
(lp637
sg626
(lp638
(g614
S'w11'
tp639
asg629
(lp640
ssg617
(dp641
g621
(lp642
(g617
S'w6'
p643
S's3'
p644
S'p'
tp645
a(g617
g643
S's4'
p646
S'p'
tp647
asg626
(lp648
(g617
g643
tp649
a(g617
S'w10'
tp650
asg629
(lp651
(g617
g643
g618
S'n'
tp652
assg618
(dp653
g621
(lp654
(g618
S'w6'
p655
g644
S'p'
tp656
a(g618
g655
g646
S'p'
tp657
asg626
(lp658
(g618
g655
tp659
asg629
(lp660
(g618
g655
g617
S'n'
tp661
ass(lp662
(g628
g634
g639
g650
g659
tp663
a(g634
g639
g650
(g615
g623
g624
S'p'
t(g618
g655
g644
S'p'
ttp664
a(g628
g634
g639
g650
(g618
g655
g646
S'p'
ttp665
aF-1
tp666
a(((S's8'
p667
S's3'
p668
S's1'
p669
S's7'
p670
S's4'
p671
t(S'w11'
S'w3'
S'w1'
S'w10'
S'w6'
tt(dp672
g668
(dp673
S'p_paths'
p674
(lp675
(g668
S'w3'
p676
S's4'
p677
S'p'
tp678
asS'edges'
p679
(lp680
(g668
g676
tp681
asS'n_paths'
p682
(lp683
ssg669
(dp684
g674
(lp685
sg679
(lp686
(g669
S'w1'
tp687
asg682
(lp688
ssg667
(dp689
g674
(lp690
sg679
(lp691
(g667
S'w11'
tp692
asg682
(lp693
ssg670
(dp694
g674
(lp695
sg679
(lp696
(g670
S'w10'
tp697
asg682
(lp698
ssg671
(dp699
g674
(lp700
(g671
S'w6'
p701
S's3'
p702
S'p'
tp703
a(g671
g701
S's4'
p704
S'p'
tp705
asg679
(lp706
(g671
g701
tp707
asg682
(lp708
ss(lp709
(g681
g687
g692
g697
g707
tp710
a(g687
g692
g697
(g668
g676
g677
S'p'
t(g671
g701
g702
S'p'
ttp711
a(g681
g687
g692
g697
(g671
g701
g704
S'p'
ttp712
aF-1
tp713
a(((S's8'
p714
S's3'
p715
S's1'
p716
S's7'
p717
S's4'
p718
t(S'w11'
S'w3'
S'w8'
S'w10'
S'w6'
tt(dp719
g715
(dp720
S'p_paths'
p721
(lp722
(g715
S'w3'
p723
S's4'
p724
S'p'
tp725
a(g715
S'w8'
p726
S's4'
p727
S'p'
tp728
asS'edges'
p729
(lp730
(g715
g723
tp731
a(g715
g726
tp732
asS'n_paths'
p733
(lp734
(g715
g726
g716
S'n'
tp735
assg716
(dp736
g721
(lp737
(g716
S'w8'
p738
g727
S'p'
tp739
asg729
(lp740
(g716
g738
tp741
asg733
(lp742
(g716
g738
g715
S'n'
tp743
assg714
(dp744
g721
(lp745
sg729
(lp746
(g714
S'w11'
tp747
asg733
(lp748
ssg717
(dp749
g721
(lp750
sg729
(lp751
(g717
S'w10'
tp752
asg733
(lp753
ssg718
(dp754
g721
(lp755
(g718
S'w6'
p756
S's3'
p757
S'p'
tp758
a(g718
g756
S's4'
p759
S'p'
tp760
asg729
(lp761
(g718
g756
tp762
asg733
(lp763
ss(lp764
(g731
g741
g747
g752
g762
tp765
a(g741
g747
g752
(g718
g756
g757
S'p'
t(g715
g723
g724
S'p'
ttp766
a(g731
g741
g747
g752
(g718
g756
g759
S'p'
ttp767
aF-1
tp768
a(((S's8'
p769
S's3'
p770
S's1'
p771
S's7'
p772
S's4'
p773
t(S'w11'
S'w8'
S'w1'
S'w10'
S'w6'
tt(dp774
g770
(dp775
S'p_paths'
p776
(lp777
(g770
S'w8'
p778
S's4'
p779
S'p'
tp780
asS'edges'
p781
(lp782
(g770
g778
tp783
asS'n_paths'
p784
(lp785
(g770
g778
g771
S'n'
tp786
assg771
(dp787
g776
(lp788
(g771
S'w8'
p789
g779
S'p'
tp790
asg781
(lp791
(g771
S'w1'
tp792
a(g771
g789
tp793
asg784
(lp794
(g771
g789
g770
S'n'
tp795
assg769
(dp796
g776
(lp797
sg781
(lp798
(g769
S'w11'
tp799
asg784
(lp800
ssg772
(dp801
g776
(lp802
sg781
(lp803
(g772
S'w10'
tp804
asg784
(lp805
ssg773
(dp806
g776
(lp807
(g773
S'w6'
p808
S's3'
p809
S'p'
tp810
a(g773
g808
S's4'
p811
S'p'
tp812
asg781
(lp813
(g773
g808
tp814
asg784
(lp815
ss(lp816
(g783
g792
g799
g804
g814
tp817
a(g792
g799
g804
(g770
g778
g779
S'p'
t(g773
g808
g809
S'p'
ttp818
a(g783
g792
g799
g804
(g773
g808
g811
S'p'
ttp819
aF-1
tp820
a(((S's8'
p821
S's3'
p822
S's1'
p823
S's6'
p824
S's4'
p825
t(S'w11'
S'w3'
S'w1'
S'w9'
S'w6'
tt(dp826
g822
(dp827
S'p_paths'
p828
(lp829
(g822
S'w3'
p830
S's4'
p831
S'p'
tp832
asS'edges'
p833
(lp834
(g822
g830
tp835
asS'n_paths'
p836
(lp837
ssg823
(dp838
g828
(lp839
sg833
(lp840
(g823
S'w1'
tp841
asg836
(lp842
ssg821
(dp843
g828
(lp844
(g821
S'w11'
p845
S's6'
S'p'
tp846
asg833
(lp847
(g821
g845
tp848
asg836
(lp849
ssg824
(dp850
g828
(lp851
sg833
(lp852
(g824
S'w9'
tp853
asg836
(lp854
ssg825
(dp855
g828
(lp856
(g825
S'w6'
p857
S's3'
p858
S'p'
tp859
a(g825
g857
S's4'
p860
S'p'
tp861
asg833
(lp862
(g825
g857
tp863
asg836
(lp864
ss(lp865
(g835
g841
g848
g853
g863
tp866
a(g841
g848
g853
(g822
g830
g831
S'p'
t(g825
g857
g858
S'p'
ttp867
a(g835
g841
g848
g853
(g825
g857
g860
S'p'
ttp868
aF-1
tp869
a(((S's8'
p870
S's3'
p871
S's1'
p872
S's6'
p873
S's4'
p874
t(S'w11'
S'w3'
S'w8'
S'w9'
S'w6'
tt(dp875
g871
(dp876
S'p_paths'
p877
(lp878
(g871
S'w3'
p879
S's4'
p880
S'p'
tp881
a(g871
S'w8'
p882
S's4'
p883
S'p'
tp884
asS'edges'
p885
(lp886
(g871
g879
tp887
a(g871
g882
tp888
asS'n_paths'
p889
(lp890
(g871
g882
g872
S'n'
tp891
assg872
(dp892
g877
(lp893
(g872
S'w8'
p894
g883
S'p'
tp895
asg885
(lp896
(g872
g894
tp897
asg889
(lp898
(g872
g894
g871
S'n'
tp899
assg870
(dp900
g877
(lp901
(g870
S'w11'
p902
S's6'
S'p'
tp903
asg885
(lp904
(g870
g902
tp905
asg889
(lp906
ssg873
(dp907
g877
(lp908
sg885
(lp909
(g873
S'w9'
tp910
asg889
(lp911
ssg874
(dp912
g877
(lp913
(g874
S'w6'
p914
S's3'
p915
S'p'
tp916
a(g874
g914
S's4'
p917
S'p'
tp918
asg885
(lp919
(g874
g914
tp920
asg889
(lp921
ss(lp922
(g887
g897
g905
g910
g920
tp923
a(g897
g905
g910
(g874
g914
g915
S'p'
t(g871
g879
g880
S'p'
ttp924
a(g887
g897
g905
g910
(g874
g914
g917
S'p'
ttp925
aF-1
tp926
a(((S's8'
p927
S's3'
p928
S's1'
p929
S's6'
p930
S's4'
p931
t(S'w11'
S'w8'
S'w1'
S'w9'
S'w6'
tt(dp932
g928
(dp933
S'p_paths'
p934
(lp935
(g928
S'w8'
p936
S's4'
p937
S'p'
tp938
asS'edges'
p939
(lp940
(g928
g936
tp941
asS'n_paths'
p942
(lp943
(g928
g936
g929
S'n'
tp944
assg929
(dp945
g934
(lp946
(g929
S'w8'
p947
g937
S'p'
tp948
asg939
(lp949
(g929
S'w1'
tp950
a(g929
g947
tp951
asg942
(lp952
(g929
g947
g928
S'n'
tp953
assg927
(dp954
g934
(lp955
(g927
S'w11'
p956
S's6'
S'p'
tp957
asg939
(lp958
(g927
g956
tp959
asg942
(lp960
ssg930
(dp961
g934
(lp962
sg939
(lp963
(g930
S'w9'
tp964
asg942
(lp965
ssg931
(dp966
g934
(lp967
(g931
S'w6'
p968
S's3'
p969
S'p'
tp970
a(g931
g968
S's4'
p971
S'p'
tp972
asg939
(lp973
(g931
g968
tp974
asg942
(lp975
ss(lp976
(g941
g950
g959
g964
g974
tp977
a(g950
g959
g964
(g928
g936
g937
S'p'
t(g931
g968
g969
S'p'
ttp978
a(g941
g950
g959
g964
(g931
g968
g971
S'p'
ttp979
aF-1
tp980
a(((S's8'
p981
S's3'
p982
S's1'
p983
S's5'
p984
S's4'
p985
t(S'w11'
S'w3'
S'w1'
S'w10'
S'w6'
tt(dp986
g982
(dp987
S'p_paths'
p988
(lp989
(g982
S'w3'
p990
S's4'
p991
S'p'
tp992
asS'edges'
p993
(lp994
(g982
g990
tp995
asS'n_paths'
p996
(lp997
ssg983
(dp998
g988
(lp999
sg993
(lp1000
(g983
S'w1'
tp1001
asg996
(lp1002
ssg981
(dp1003
g988
(lp1004
sg993
(lp1005
(g981
S'w11'
tp1006
asg996
(lp1007
ssg984
(dp1008
g988
(lp1009
(g984
S'w6'
p1010
S's3'
p1011
S'p'
tp1012
a(g984
g1010
S's4'
p1013
S'p'
tp1014
asg993
(lp1015
(g984
g1010
tp1016
a(g984
S'w10'
tp1017
asg996
(lp1018
(g984
g1010
g985
S'n'
tp1019
assg985
(dp1020
g988
(lp1021
(g985
S'w6'
p1022
g1011
S'p'
tp1023
a(g985
g1022
g1013
S'p'
tp1024
asg993
(lp1025
(g985
g1022
tp1026
asg996
(lp1027
(g985
g1022
g984
S'n'
tp1028
ass(lp1029
(g995
g1001
g1006
g1017
g1026
tp1030
a(g1001
g1006
g1017
(g985
g1022
g1011
S'p'
t(g982
g990
g991
S'p'
ttp1031
a(g995
g1001
g1006
g1017
(g985
g1022
g1013
S'p'
ttp1032
aF-1
tp1033
a(((S's8'
p1034
S's3'
p1035
S's1'
p1036
S's5'
p1037
S's4'
p1038
t(S'w11'
S'w3'
S'w8'
S'w10'
S'w6'
tt(dp1039
g1035
(dp1040
S'p_paths'
p1041
(lp1042
(g1035
S'w3'
p1043
S's4'
p1044
S'p'
tp1045
a(g1035
S'w8'
p1046
S's4'
p1047
S'p'
tp1048
asS'edges'
p1049
(lp1050
(g1035
g1043
tp1051
a(g1035
g1046
tp1052
asS'n_paths'
p1053
(lp1054
(g1035
g1046
g1036
S'n'
tp1055
assg1036
(dp1056
g1041
(lp1057
(g1036
S'w8'
p1058
g1047
S'p'
tp1059
asg1049
(lp1060
(g1036
g1058
tp1061
asg1053
(lp1062
(g1036
g1058
g1035
S'n'
tp1063
assg1034
(dp1064
g1041
(lp1065
sg1049
(lp1066
(g1034
S'w11'
tp1067
asg1053
(lp1068
ssg1037
(dp1069
g1041
(lp1070
(g1037
S'w6'
p1071
S's3'
p1072
S'p'
tp1073
a(g1037
g1071
S's4'
p1074
S'p'
tp1075
asg1049
(lp1076
(g1037
g1071
tp1077
a(g1037
S'w10'
tp1078
asg1053
(lp1079
(g1037
g1071
g1038
S'n'
tp1080
assg1038
(dp1081
g1041
(lp1082
(g1038
S'w6'
p1083
g1072
S'p'
tp1084
a(g1038
g1083
g1074
S'p'
tp1085
asg1049
(lp1086
(g1038
g1083
tp1087
asg1053
(lp1088
(g1038
g1083
g1037
S'n'
tp1089
ass(lp1090
(g1051
g1061
g1067
g1078
g1087
tp1091
a(g1061
g1067
g1078
(g1038
g1083
g1072
S'p'
t(g1035
g1043
g1044
S'p'
ttp1092
a(g1051
g1061
g1067
g1078
(g1038
g1083
g1074
S'p'
ttp1093
aF-1
tp1094
a(((S's8'
p1095
S's3'
p1096
S's1'
p1097
S's5'
p1098
S's4'
p1099
t(S'w11'
S'w8'
S'w1'
S'w10'
S'w6'
tt(dp1100
g1096
(dp1101
S'p_paths'
p1102
(lp1103
(g1096
S'w8'
p1104
S's4'
p1105
S'p'
tp1106
asS'edges'
p1107
(lp1108
(g1096
g1104
tp1109
asS'n_paths'
p1110
(lp1111
(g1096
g1104
g1097
S'n'
tp1112
assg1097
(dp1113
g1102
(lp1114
(g1097
S'w8'
p1115
g1105
S'p'
tp1116
asg1107
(lp1117
(g1097
S'w1'
tp1118
a(g1097
g1115
tp1119
asg1110
(lp1120
(g1097
g1115
g1096
S'n'
tp1121
assg1095
(dp1122
g1102
(lp1123
sg1107
(lp1124
(g1095
S'w11'
tp1125
asg1110
(lp1126
ssg1098
(dp1127
g1102
(lp1128
(g1098
S'w6'
p1129
S's3'
p1130
S'p'
tp1131
a(g1098
g1129
S's4'
p1132
S'p'
tp1133
asg1107
(lp1134
(g1098
g1129
tp1135
a(g1098
S'w10'
tp1136
asg1110
(lp1137
(g1098
g1129
g1099
S'n'
tp1138
assg1099
(dp1139
g1102
(lp1140
(g1099
S'w6'
p1141
g1130
S'p'
tp1142
a(g1099
g1141
g1132
S'p'
tp1143
asg1107
(lp1144
(g1099
g1141
tp1145
asg1110
(lp1146
(g1099
g1141
g1098
S'n'
tp1147
ass(lp1148
(g1109
g1118
g1125
g1136
g1145
tp1149
a(g1118
g1125
g1136
(g1096
g1104
g1105
S'p'
t(g1099
g1141
g1130
S'p'
ttp1150
a(g1109
g1118
g1125
g1136
(g1099
g1141
g1132
S'p'
ttp1151
aF-1
tp1152
a(((S's3'
p1153
S's2'
p1154
S's7'
p1155
S's6'
p1156
S's4'
p1157
t(S'w3'
S'w2'
S'w10'
S'w12'
S'w6'
tt(dp1158
g1153
(dp1159
S'p_paths'
p1160
(lp1161
(g1153
S'w3'
p1162
S's4'
p1163
S'p'
tp1164
asS'edges'
p1165
(lp1166
(g1153
g1162
tp1167
asS'n_paths'
p1168
(lp1169
(g1153
g1162
g1154
S'n'
tp1170
assg1154
(dp1171
g1160
(lp1172
(g1154
S'w3'
p1173
g1163
S'p'
tp1174
asg1165
(lp1175
(g1154
g1173
tp1176
a(g1154
S'w2'
tp1177
asg1168
(lp1178
(g1154
g1173
g1153
S'n'
tp1179
assg1155
(dp1180
g1160
(lp1181
(g1155
S'w10'
p1182
S's6'
S'p'
tp1183
asg1165
(lp1184
(g1155
g1182
tp1185
asg1168
(lp1186
ssg1156
(dp1187
g1160
(lp1188
sg1165
(lp1189
(g1156
S'w12'
tp1190
asg1168
(lp1191
ssg1157
(dp1192
g1160
(lp1193
(g1157
S'w6'
p1194
S's3'
p1195
S'p'
tp1196
a(g1157
g1194
S's4'
p1197
S'p'
tp1198
asg1165
(lp1199
(g1157
g1194
tp1200
asg1168
(lp1201
ss(lp1202
(g1167
g1177
g1185
g1190
g1200
tp1203
a(g1177
g1185
g1190
(g1157
g1194
g1195
S'p'
t(g1153
g1162
g1163
S'p'
ttp1204
a(g1167
g1177
g1185
g1190
(g1157
g1194
g1197
S'p'
ttp1205
aF-1
tp1206
a(((S's3'
p1207
S's2'
p1208
S's7'
p1209
S's6'
p1210
S's4'
p1211
t(S'w8'
S'w5'
S'w10'
S'w12'
S'w4'
tt(dp1212
g1207
(dp1213
S'p_paths'
p1214
(lp1215
(g1207
S'w8'
p1216
S's4'
p1217
S'p'
tp1218
asS'edges'
p1219
(lp1220
(g1207
g1216
tp1221
asS'n_paths'
p1222
(lp1223
ssg1208
(dp1224
g1214
(lp1225
(g1208
S'w5'
p1226
S's3'
p1227
S'p'
tp1228
a(g1208
g1226
S's2'
p1229
S'p'
tp1230
asg1219
(lp1231
(g1208
g1226
tp1232
asg1222
(lp1233
ssg1209
(dp1234
g1214
(lp1235
(g1209
S'w10'
p1236
S's6'
S'p'
tp1237
asg1219
(lp1238
(g1209
g1236
tp1239
asg1222
(lp1240
ssg1210
(dp1241
g1214
(lp1242
sg1219
(lp1243
(g1210
S'w12'
tp1244
asg1222
(lp1245
ssg1211
(dp1246
g1214
(lp1247
(g1211
S'w4'
p1248
S's3'
p1249
S'p'
tp1250
a(g1211
g1248
S's2'
p1251
S'p'
tp1252
asg1219
(lp1253
(g1211
g1248
tp1254
asg1222
(lp1255
ss(lp1256
(g1221
g1232
g1239
g1244
g1254
tp1257
a(g1221
g1239
g1244
g1254
(g1208
g1226
g1229
S'p'
tp1258
tp1259
a(g1232
g1239
g1244
(g1207
g1216
g1217
S'p'
tp1260
(g1211
g1248
g1249
S'p'
tp1261
tp1262
a(g1239
g1244
(g1211
g1248
g1251
S'p'
t(g1208
g1226
g1227
S'p'
tg1260
tp1263
a(g1239
g1244
g1258
g1260
g1261
tp1264
aF-1
tp1265
a(((S's3'
p1266
S's2'
p1267
S's7'
p1268
S's6'
p1269
S's4'
p1270
t(S'w8'
S'w3'
S'w10'
S'w12'
S'w6'
tt(dp1271
g1266
(dp1272
S'p_paths'
p1273
(lp1274
(g1266
S'w3'
p1275
S's4'
p1276
S'p'
tp1277
a(g1266
S'w8'
p1278
S's4'
p1279
S'p'
tp1280
asS'edges'
p1281
(lp1282
(g1266
g1275
tp1283
a(g1266
g1278
tp1284
asS'n_paths'
p1285
(lp1286
(g1266
g1275
g1267
S'n'
tp1287
assg1267
(dp1288
g1273
(lp1289
(g1267
S'w3'
p1290
g1276
S'p'
tp1291
asg1281
(lp1292
(g1267
g1290
tp1293
asg1285
(lp1294
(g1267
g1290
g1266
S'n'
tp1295
assg1268
(dp1296
g1273
(lp1297
(g1268
S'w10'
p1298
S's6'
S'p'
tp1299
asg1281
(lp1300
(g1268
g1298
tp1301
asg1285
(lp1302
ssg1269
(dp1303
g1273
(lp1304
sg1281
(lp1305
(g1269
S'w12'
tp1306
asg1285
(lp1307
ssg1270
(dp1308
g1273
(lp1309
(g1270
S'w6'
p1310
S's3'
p1311
S'p'
tp1312
a(g1270
g1310
S's4'
p1313
S'p'
tp1314
asg1281
(lp1315
(g1270
g1310
tp1316
asg1285
(lp1317
ss(lp1318
(g1284
g1293
g1301
g1306
g1316
tp1319
a(g1293
g1301
g1306
(g1266
g1278
g1279
S'p'
t(g1270
g1310
g1311
S'p'
ttp1320
a(g1284
g1293
g1301
g1306
(g1270
g1310
g1313
S'p'
ttp1321
aF-1
tp1322
a(((S's3'
p1323
S's2'
p1324
S's7'
p1325
S's6'
p1326
S's4'
p1327
t(S'w8'
S'w2'
S'w10'
S'w12'
S'w6'
tt(dp1328
g1323
(dp1329
S'p_paths'
p1330
(lp1331
(g1323
S'w8'
p1332
S's4'
p1333
S'p'
tp1334
asS'edges'
p1335
(lp1336
(g1323
g1332
tp1337
asS'n_paths'
p1338
(lp1339
ssg1324
(dp1340
g1330
(lp1341
sg1335
(lp1342
(g1324
S'w2'
tp1343
asg1338
(lp1344
ssg1325
(dp1345
g1330
(lp1346
(g1325
S'w10'
p1347
S's6'
S'p'
tp1348
asg1335
(lp1349
(g1325
g1347
tp1350
asg1338
(lp1351
ssg1326
(dp1352
g1330
(lp1353
sg1335
(lp1354
(g1326
S'w12'
tp1355
asg1338
(lp1356
ssg1327
(dp1357
g1330
(lp1358
(g1327
S'w6'
p1359
S's3'
p1360
S'p'
tp1361
a(g1327
g1359
S's4'
p1362
S'p'
tp1363
asg1335
(lp1364
(g1327
g1359
tp1365
asg1338
(lp1366
ss(lp1367
(g1337
g1343
g1350
g1355
g1365
tp1368
a(g1343
g1350
g1355
(g1323
g1332
g1333
S'p'
t(g1327
g1359
g1360
S'p'
ttp1369
a(g1337
g1343
g1350
g1355
(g1327
g1359
g1362
S'p'
ttp1370
aF-1
tp1371
a(((S's3'
p1372
S's2'
p1373
S's6'
p1374
S's5'
p1375
S's4'
p1376
t(S'w3'
S'w2'
S'w12'
S'w10'
S'w6'
tt(dp1377
g1372
(dp1378
S'p_paths'
p1379
(lp1380
(g1372
S'w3'
p1381
S's4'
p1382
S'p'
tp1383
asS'edges'
p1384
(lp1385
(g1372
g1381
tp1386
asS'n_paths'
p1387
(lp1388
(g1372
g1381
g1373
S'n'
tp1389
assg1373
(dp1390
g1379
(lp1391
(g1373
S'w3'
p1392
g1382
S'p'
tp1393
asg1384
(lp1394
(g1373
g1392
tp1395
a(g1373
S'w2'
tp1396
asg1387
(lp1397
(g1373
g1392
g1372
S'n'
tp1398
assg1374
(dp1399
g1379
(lp1400
sg1384
(lp1401
(g1374
S'w12'
tp1402
asg1387
(lp1403
ssg1375
(dp1404
g1379
(lp1405
(g1375
S'w6'
p1406
S's3'
p1407
S'p'
tp1408
a(g1375
g1406
S's4'
p1409
S'p'
tp1410
a(g1375
S'w10'
p1411
S's6'
S'p'
tp1412
asg1384
(lp1413
(g1375
g1406
tp1414
a(g1375
g1411
tp1415
asg1387
(lp1416
(g1375
g1406
g1376
S'n'
tp1417
assg1376
(dp1418
g1379
(lp1419
(g1376
S'w6'
p1420
g1407
S'p'
tp1421
a(g1376
g1420
g1409
S'p'
tp1422
asg1384
(lp1423
(g1376
g1420
tp1424
asg1387
(lp1425
(g1376
g1420
g1375
S'n'
tp1426
ass(lp1427
(g1386
g1396
g1402
g1415
g1424
tp1428
a(g1396
g1402
g1415
(g1376
g1420
g1407
S'p'
t(g1372
g1381
g1382
S'p'
ttp1429
a(g1386
g1396
g1402
g1415
(g1376
g1420
g1409
S'p'
ttp1430
aF-1
tp1431
a(((S's3'
p1432
S's2'
p1433
S's6'
p1434
S's5'
p1435
S's4'
p1436
t(S'w8'
S'w5'
S'w12'
S'w10'
S'w4'
tt(dp1437
g1432
(dp1438
S'p_paths'
p1439
(lp1440
(g1432
S'w8'
p1441
S's4'
p1442
S'p'
tp1443
asS'edges'
p1444
(lp1445
(g1432
g1441
tp1446
asS'n_paths'
p1447
(lp1448
ssg1433
(dp1449
g1439
(lp1450
(g1433
S'w5'
p1451
S's3'
p1452
S'p'
tp1453
a(g1433
g1451
S's2'
p1454
S'p'
tp1455
asg1444
(lp1456
(g1433
g1451
tp1457
asg1447
(lp1458
(g1433
g1451
g1435
S'n'
tp1459
assg1434
(dp1460
g1439
(lp1461
sg1444
(lp1462
(g1434
S'w12'
tp1463
asg1447
(lp1464
ssg1435
(dp1465
g1439
(lp1466
(g1435
S'w5'
p1467
g1452
S'p'
tp1468
a(g1435
g1467
g1454
S'p'
tp1469
a(g1435
S'w10'
p1470
S's6'
S'p'
tp1471
asg1444
(lp1472
(g1435
g1467
tp1473
a(g1435
g1470
tp1474
asg1447
(lp1475
(g1435
g1467
g1433
S'n'
tp1476
assg1436
(dp1477
g1439
(lp1478
(g1436
S'w4'
p1479
S's3'
p1480
S'p'
tp1481
a(g1436
g1479
S's2'
p1482
S'p'
tp1483
asg1444
(lp1484
(g1436
g1479
tp1485
asg1447
(lp1486
ss(lp1487
(g1446
g1457
g1463
g1474
g1485
tp1488
a(g1446
g1463
g1474
g1485
(g1433
g1451
g1454
S'p'
tp1489
tp1490
a(g1463
g1474
(g1432
g1441
g1442
S'p'
tp1491
(g1436
g1479
g1482
S'p'
t(g1433
g1451
g1452
S'p'
ttp1492
a(g1457
g1463
g1474
g1491
(g1436
g1479
g1480
S'p'
tp1493
tp1494
a(g1463
g1474
g1489
g1491
g1493
tp1495
aF-1
tp1496
a(((S's3'
p1497
S's2'
p1498
S's6'
p1499
S's5'
p1500
S's4'
p1501
t(S'w8'
S'w3'
S'w12'
S'w10'
S'w6'
tt(dp1502
g1497
(dp1503
S'p_paths'
p1504
(lp1505
(g1497
S'w3'
p1506
S's4'
p1507
S'p'
tp1508
a(g1497
S'w8'
p1509
S's4'
p1510
S'p'
tp1511
asS'edges'
p1512
(lp1513
(g1497
g1506
tp1514
a(g1497
g1509
tp1515
asS'n_paths'
p1516
(lp1517
(g1497
g1506
g1498
S'n'
tp1518
assg1498
(dp1519
g1504
(lp1520
(g1498
S'w3'
p1521
g1507
S'p'
tp1522
asg1512
(lp1523
(g1498
g1521
tp1524
asg1516
(lp1525
(g1498
g1521
g1497
S'n'
tp1526
assg1499
(dp1527
g1504
(lp1528
sg1512
(lp1529
(g1499
S'w12'
tp1530
asg1516
(lp1531
ssg1500
(dp1532
g1504
(lp1533
(g1500
S'w6'
p1534
S's3'
p1535
S'p'
tp1536
a(g1500
g1534
S's4'
p1537
S'p'
tp1538
a(g1500
S'w10'
p1539
S's6'
S'p'
tp1540
asg1512
(lp1541
(g1500
g1534
tp1542
a(g1500
g1539
tp1543
asg1516
(lp1544
(g1500
g1534
g1501
S'n'
tp1545
assg1501
(dp1546
g1504
(lp1547
(g1501
S'w6'
p1548
g1535
S'p'
tp1549
a(g1501
g1548
g1537
S'p'
tp1550
asg1512
(lp1551
(g1501
g1548
tp1552
asg1516
(lp1553
(g1501
g1548
g1500
S'n'
tp1554
ass(lp1555
(g1515
g1524
g1530
g1543
g1552
tp1556
a(g1524
g1530
g1543
(g1497
g1509
g1510
S'p'
t(g1501
g1548
g1535
S'p'
ttp1557
a(g1515
g1524
g1530
g1543
(g1501
g1548
g1537
S'p'
ttp1558
aF-1
tp1559
a(((S's3'
p1560
S's2'
p1561
S's6'
p1562
S's5'
p1563
S's4'
p1564
t(S'w8'
S'w2'
S'w12'
S'w10'
S'w6'
tt(dp1565
g1560
(dp1566
S'p_paths'
p1567
(lp1568
(g1560
S'w8'
p1569
S's4'
p1570
S'p'
tp1571
asS'edges'
p1572
(lp1573
(g1560
g1569
tp1574
asS'n_paths'
p1575
(lp1576
ssg1561
(dp1577
g1567
(lp1578
sg1572
(lp1579
(g1561
S'w2'
tp1580
asg1575
(lp1581
ssg1562
(dp1582
g1567
(lp1583
sg1572
(lp1584
(g1562
S'w12'
tp1585
asg1575
(lp1586
ssg1563
(dp1587
g1567
(lp1588
(g1563
S'w6'
p1589
S's3'
p1590
S'p'
tp1591
a(g1563
g1589
S's4'
p1592
S'p'
tp1593
a(g1563
S'w10'
p1594
S's6'
S'p'
tp1595
asg1572
(lp1596
(g1563
g1589
tp1597
a(g1563
g1594
tp1598
asg1575
(lp1599
(g1563
g1589
g1564
S'n'
tp1600
assg1564
(dp1601
g1567
(lp1602
(g1564
S'w6'
p1603
g1590
S'p'
tp1604
a(g1564
g1603
g1592
S'p'
tp1605
asg1572
(lp1606
(g1564
g1603
tp1607
asg1575
(lp1608
(g1564
g1603
g1563
S'n'
tp1609
ass(lp1610
(g1574
g1580
g1585
g1598
g1607
tp1611
a(g1580
g1585
g1598
(g1560
g1569
g1570
S'p'
t(g1564
g1603
g1590
S'p'
ttp1612
a(g1574
g1580
g1585
g1598
(g1564
g1603
g1592
S'p'
ttp1613
aF-1
tp1614
a(((S's3'
p1615
S's1'
p1616
S's7'
p1617
S's6'
p1618
S's4'
p1619
t(S'w3'
S'w1'
S'w10'
S'w12'
S'w6'
tt(dp1620
g1615
(dp1621
S'p_paths'
p1622
(lp1623
(g1615
S'w3'
p1624
S's4'
p1625
S'p'
tp1626
asS'edges'
p1627
(lp1628
(g1615
g1624
tp1629
asS'n_paths'
p1630
(lp1631
ssg1616
(dp1632
g1622
(lp1633
sg1627
(lp1634
(g1616
S'w1'
tp1635
asg1630
(lp1636
ssg1617
(dp1637
g1622
(lp1638
(g1617
S'w10'
p1639
S's6'
S'p'
tp1640
asg1627
(lp1641
(g1617
g1639
tp1642
asg1630
(lp1643
ssg1618
(dp1644
g1622
(lp1645
sg1627
(lp1646
(g1618
S'w12'
tp1647
asg1630
(lp1648
ssg1619
(dp1649
g1622
(lp1650
(g1619
S'w6'
p1651
S's3'
p1652
S'p'
tp1653
a(g1619
g1651
S's4'
p1654
S'p'
tp1655
asg1627
(lp1656
(g1619
g1651
tp1657
asg1630
(lp1658
ss(lp1659
(g1629
g1635
g1642
g1647
g1657
tp1660
a(g1635
g1642
g1647
(g1615
g1624
g1625
S'p'
t(g1619
g1651
g1652
S'p'
ttp1661
a(g1629
g1635
g1642
g1647
(g1619
g1651
g1654
S'p'
ttp1662
aF-1
tp1663
a(((S's3'
p1664
S's1'
p1665
S's7'
p1666
S's6'
p1667
S's4'
p1668
t(S'w3'
S'w8'
S'w10'
S'w12'
S'w6'
tt(dp1669
g1664
(dp1670
S'p_paths'
p1671
(lp1672
(g1664
S'w3'
p1673
S's4'
p1674
S'p'
tp1675
a(g1664
S'w8'
p1676
S's4'
p1677
S'p'
tp1678
asS'edges'
p1679
(lp1680
(g1664
g1673
tp1681
a(g1664
g1676
tp1682
asS'n_paths'
p1683
(lp1684
(g1664
g1676
g1665
S'n'
tp1685
assg1665
(dp1686
g1671
(lp1687
(g1665
S'w8'
p1688
g1677
S'p'
tp1689
asg1679
(lp1690
(g1665
g1688
tp1691
asg1683
(lp1692
(g1665
g1688
g1664
S'n'
tp1693
assg1666
(dp1694
g1671
(lp1695
(g1666
S'w10'
p1696
S's6'
S'p'
tp1697
asg1679
(lp1698
(g1666
g1696
tp1699
asg1683
(lp1700
ssg1667
(dp1701
g1671
(lp1702
sg1679
(lp1703
(g1667
S'w12'
tp1704
asg1683
(lp1705
ssg1668
(dp1706
g1671
(lp1707
(g1668
S'w6'
p1708
S's3'
p1709
S'p'
tp1710
a(g1668
g1708
S's4'
p1711
S'p'
tp1712
asg1679
(lp1713
(g1668
g1708
tp1714
asg1683
(lp1715
ss(lp1716
(g1681
g1691
g1699
g1704
g1714
tp1717
a(g1691
g1699
g1704
(g1668
g1708
g1709
S'p'
t(g1664
g1673
g1674
S'p'
ttp1718
a(g1681
g1691
g1699
g1704
(g1668
g1708
g1711
S'p'
ttp1719
aF-1
tp1720
a(((S's3'
p1721
S's1'
p1722
S's7'
p1723
S's6'
p1724
S's4'
p1725
t(S'w8'
S'w1'
S'w10'
S'w12'
S'w6'
tt(dp1726
g1721
(dp1727
S'p_paths'
p1728
(lp1729
(g1721
S'w8'
p1730
S's4'
p1731
S'p'
tp1732
asS'edges'
p1733
(lp1734
(g1721
g1730
tp1735
asS'n_paths'
p1736
(lp1737
(g1721
g1730
g1722
S'n'
tp1738
assg1722
(dp1739
g1728
(lp1740
(g1722
S'w8'
p1741
g1731
S'p'
tp1742
asg1733
(lp1743
(g1722
S'w1'
tp1744
a(g1722
g1741
tp1745
asg1736
(lp1746
(g1722
g1741
g1721
S'n'
tp1747
assg1723
(dp1748
g1728
(lp1749
(g1723
S'w10'
p1750
S's6'
S'p'
tp1751
asg1733
(lp1752
(g1723
g1750
tp1753
asg1736
(lp1754
ssg1724
(dp1755
g1728
(lp1756
sg1733
(lp1757
(g1724
S'w12'
tp1758
asg1736
(lp1759
ssg1725
(dp1760
g1728
(lp1761
(g1725
S'w6'
p1762
S's3'
p1763
S'p'
tp1764
a(g1725
g1762
S's4'
p1765
S'p'
tp1766
asg1733
(lp1767
(g1725
g1762
tp1768
asg1736
(lp1769
ss(lp1770
(g1735
g1744
g1753
g1758
g1768
tp1771
a(g1744
g1753
g1758
(g1721
g1730
g1731
S'p'
t(g1725
g1762
g1763
S'p'
ttp1772
a(g1735
g1744
g1753
g1758
(g1725
g1762
g1765
S'p'
ttp1773
aF-1
tp1774
a(((S's3'
p1775
S's1'
p1776
S's6'
p1777
S's5'
p1778
S's4'
p1779
t(S'w3'
S'w1'
S'w12'
S'w10'
S'w6'
tt(dp1780
g1775
(dp1781
S'p_paths'
p1782
(lp1783
(g1775
S'w3'
p1784
S's4'
p1785
S'p'
tp1786
asS'edges'
p1787
(lp1788
(g1775
g1784
tp1789
asS'n_paths'
p1790
(lp1791
ssg1776
(dp1792
g1782
(lp1793
sg1787
(lp1794
(g1776
S'w1'
tp1795
asg1790
(lp1796
ssg1777
(dp1797
g1782
(lp1798
sg1787
(lp1799
(g1777
S'w12'
tp1800
asg1790
(lp1801
ssg1778
(dp1802
g1782
(lp1803
(g1778
S'w6'
p1804
S's3'
p1805
S'p'
tp1806
a(g1778
g1804
S's4'
p1807
S'p'
tp1808
a(g1778
S'w10'
p1809
S's6'
S'p'
tp1810
asg1787
(lp1811
(g1778
g1804
tp1812
a(g1778
g1809
tp1813
asg1790
(lp1814
(g1778
g1804
g1779
S'n'
tp1815
assg1779
(dp1816
g1782
(lp1817
(g1779
S'w6'
p1818
g1805
S'p'
tp1819
a(g1779
g1818
g1807
S'p'
tp1820
asg1787
(lp1821
(g1779
g1818
tp1822
asg1790
(lp1823
(g1779
g1818
g1778
S'n'
tp1824
ass(lp1825
(g1789
g1795
g1800
g1813
g1822
tp1826
a(g1795
g1800
g1813
(g1779
g1818
g1805
S'p'
t(g1775
g1784
g1785
S'p'
ttp1827
a(g1789
g1795
g1800
g1813
(g1779
g1818
g1807
S'p'
ttp1828
aF-1
tp1829
a(((S's3'
p1830
S's1'
p1831
S's6'
p1832
S's5'
p1833
S's4'
p1834
t(S'w3'
S'w8'
S'w12'
S'w10'
S'w6'
tt(dp1835
g1830
(dp1836
S'p_paths'
p1837
(lp1838
(g1830
S'w3'
p1839
S's4'
p1840
S'p'
tp1841
a(g1830
S'w8'
p1842
S's4'
p1843
S'p'
tp1844
asS'edges'
p1845
(lp1846
(g1830
g1839
tp1847
a(g1830
g1842
tp1848
asS'n_paths'
p1849
(lp1850
(g1830
g1842
g1831
S'n'
tp1851
assg1831
(dp1852
g1837
(lp1853
(g1831
S'w8'
p1854
g1843
S'p'
tp1855
asg1845
(lp1856
(g1831
g1854
tp1857
asg1849
(lp1858
(g1831
g1854
g1830
S'n'
tp1859
assg1832
(dp1860
g1837
(lp1861
sg1845
(lp1862
(g1832
S'w12'
tp1863
asg1849
(lp1864
ssg1833
(dp1865
g1837
(lp1866
(g1833
S'w6'
p1867
S's3'
p1868
S'p'
tp1869
a(g1833
g1867
S's4'
p1870
S'p'
tp1871
a(g1833
S'w10'
p1872
S's6'
S'p'
tp1873
asg1845
(lp1874
(g1833
g1867
tp1875
a(g1833
g1872
tp1876
asg1849
(lp1877
(g1833
g1867
g1834
S'n'
tp1878
assg1834
(dp1879
g1837
(lp1880
(g1834
S'w6'
p1881
g1868
S'p'
tp1882
a(g1834
g1881
g1870
S'p'
tp1883
asg1845
(lp1884
(g1834
g1881
tp1885
asg1849
(lp1886
(g1834
g1881
g1833
S'n'
tp1887
ass(lp1888
(g1847
g1857
g1863
g1876
g1885
tp1889
a(g1857
g1863
g1876
(g1834
g1881
g1868
S'p'
t(g1830
g1839
g1840
S'p'
ttp1890
a(g1847
g1857
g1863
g1876
(g1834
g1881
g1870
S'p'
ttp1891
aF-1
tp1892
a(((S's3'
p1893
S's1'
p1894
S's6'
p1895
S's5'
p1896
S's4'
p1897
t(S'w8'
S'w1'
S'w12'
S'w10'
S'w6'
tt(dp1898
g1893
(dp1899
S'p_paths'
p1900
(lp1901
(g1893
S'w8'
p1902
S's4'
p1903
S'p'
tp1904
asS'edges'
p1905
(lp1906
(g1893
g1902
tp1907
asS'n_paths'
p1908
(lp1909
(g1893
g1902
g1894
S'n'
tp1910
assg1894
(dp1911
g1900
(lp1912
(g1894
S'w8'
p1913
g1903
S'p'
tp1914
asg1905
(lp1915
(g1894
S'w1'
tp1916
a(g1894
g1913
tp1917
asg1908
(lp1918
(g1894
g1913
g1893
S'n'
tp1919
assg1895
(dp1920
g1900
(lp1921
sg1905
(lp1922
(g1895
S'w12'
tp1923
asg1908
(lp1924
ssg1896
(dp1925
g1900
(lp1926
(g1896
S'w6'
p1927
S's3'
p1928
S'p'
tp1929
a(g1896
g1927
S's4'
p1930
S'p'
tp1931
a(g1896
S'w10'
p1932
S's6'
S'p'
tp1933
asg1905
(lp1934
(g1896
g1927
tp1935
a(g1896
g1932
tp1936
asg1908
(lp1937
(g1896
g1927
g1897
S'n'
tp1938
assg1897
(dp1939
g1900
(lp1940
(g1897
S'w6'
p1941
g1928
S'p'
tp1942
a(g1897
g1941
g1930
S'p'
tp1943
asg1905
(lp1944
(g1897
g1941
tp1945
asg1908
(lp1946
(g1897
g1941
g1896
S'n'
tp1947
ass(lp1948
(g1907
g1916
g1923
g1936
g1945
tp1949
a(g1916
g1923
g1936
(g1893
g1902
g1903
S'p'
t(g1897
g1941
g1928
S'p'
ttp1950
a(g1907
g1916
g1923
g1936
(g1897
g1941
g1930
S'p'
ttp1951
aF-1
tp1952
a.