(lp1
(((S's9'
p2
S's8'
p3
S's3'
p4
S's2'
p5
S's1'
p6
S's7'
p7
S's6'
p8
S's12'
p9
S's11'
p10
t(S'w13'
S'w10'
S'w3'
S'w4'
S'w1'
S'w9'
S'w7'
S'w17'
S'w15'
tt(dp11
g2
(dp12
S'p_paths'
p13
(lp14
(g2
S'w13'
p15
S's11'
p16
S'p'
tp17
asS'edges'
p18
(lp19
(g2
g15
tp20
a(g2
S'w10'
p21
tp22
asS'n_paths'
p23
(lp24
(g2
g15
g8
S'n'
tp25
a(g2
g21
g3
S'n'
tp26
assg3
(dp27
g13
(lp28
sg18
(lp29
(g3
S'w10'
p30
tp31
asg23
(lp32
(g3
g30
g2
S'n'
tp33
assg4
(dp34
g13
(lp35
(g4
S'w3'
p36
S's2'
S'p'
tp37
asg18
(lp38
(g4
g36
tp39
asg23
(lp40
ssg5
(dp41
g13
(lp42
(g5
S'w7'
p43
S's7'
p44
S'p'
tp45
a(g5
S'w1'
p46
S's3'
p47
S'p'
tp48
asg18
(lp49
(g5
g43
tp50
a(g5
S'w4'
tp51
a(g5
g46
tp52
asg23
(lp53
(g5
g43
g8
S'n'
tp54
a(g5
g46
g6
S'n'
tp55
assg6
(dp56
g13
(lp57
(g6
S'w1'
p58
g47
S'p'
tp59
asg18
(lp60
(g6
g58
tp61
asg23
(lp62
(g6
g58
g5
S'n'
tp63
assg7
(dp64
g13
(lp65
(g7
S'w9'
p66
S's2'
S'p'
tp67
a(g7
g66
S's8'
p68
S'p'
tp69
asg18
(lp70
(g7
g66
tp71
asg23
(lp72
ssg8
(dp73
g13
(lp74
(g8
S'w7'
p75
g44
S'p'
tp76
a(g8
S'w13'
p77
g16
S'p'
tp78
asg18
(lp79
(g8
g75
tp80
a(g8
g77
tp81
asg23
(lp82
(g8
g75
g5
S'n'
tp83
a(g8
g77
g2
S'n'
tp84
assg9
(dp85
g13
(lp86
(g9
S'w17'
p87
S's9'
S'p'
tp88
asg18
(lp89
(g9
g87
tp90
asg23
(lp91
ssg10
(dp92
g13
(lp93
(g10
S'w15'
p94
S's9'
p95
S'p'
tp96
asg18
(lp97
(g10
g94
tp98
asg23
(lp99
ss(lp100
(g20
g31
g39
g51
g61
g71
g80
g90
g98
tp101
a(g31
g39
g51
g61
g71
g80
g90
(g10
g94
g95
S'p'
t(g2
g15
g16
S'p'
ttp102
a(g39
g51
g61
g90
g98
(g3
g21
g2
S'n'
t(g2
g15
g8
S'n'
t(g8
g75
g44
S'p'
t(g7
g66
g68
S'p'
ttp103
aF-1
tp104
a(((S's9'
p105
S's8'
p106
S's3'
p107
S's2'
p108
S's1'
p109
S's7'
p110
S's6'
p111
S's12'
p112
S's11'
p113
t(S'w13'
S'w10'
S'w3'
S'w4'
S'w1'
S'w9'
S'w7'
S'w18'
S'w15'
tt(dp114
g105
(dp115
S'p_paths'
p116
(lp117
(g105
S'w13'
p118
S's11'
p119
S'p'
tp120
asS'edges'
p121
(lp122
(g105
g118
tp123
a(g105
S'w10'
p124
tp125
asS'n_paths'
p126
(lp127
(g105
g118
g111
S'n'
tp128
a(g105
g124
g106
S'n'
tp129
assg106
(dp130
g116
(lp131
sg121
(lp132
(g106
S'w10'
p133
tp134
asg126
(lp135
(g106
g133
g105
S'n'
tp136
assg107
(dp137
g116
(lp138
(g107
S'w3'
p139
S's2'
S'p'
tp140
asg121
(lp141
(g107
g139
tp142
asg126
(lp143
ssg108
(dp144
g116
(lp145
(g108
S'w7'
p146
S's7'
p147
S'p'
tp148
a(g108
S'w1'
p149
S's3'
p150
S'p'
tp151
asg121
(lp152
(g108
g146
tp153
a(g108
S'w4'
tp154
a(g108
g149
tp155
asg126
(lp156
(g108
g146
g111
S'n'
tp157
a(g108
g149
g109
S'n'
tp158
assg109
(dp159
g116
(lp160
(g109
S'w1'
p161
g150
S'p'
tp162
asg121
(lp163
(g109
g161
tp164
asg126
(lp165
(g109
g161
g108
S'n'
tp166
assg110
(dp167
g116
(lp168
(g110
S'w9'
p169
S's2'
S'p'
tp170
a(g110
g169
S's8'
p171
S'p'
tp172
asg121
(lp173
(g110
g169
tp174
asg126
(lp175
ssg111
(dp176
g116
(lp177
(g111
S'w7'
p178
g147
S'p'
tp179
a(g111
S'w13'
p180
g119
S'p'
tp181
asg121
(lp182
(g111
g178
tp183
a(g111
g180
tp184
asg126
(lp185
(g111
g178
g108
S'n'
tp186
a(g111
g180
g105
S'n'
tp187
assg112
(dp188
g116
(lp189
(g112
S'w18'
p190
S's1'
S'p'
tp191
a(g112
g190
S's9'
S'p'
tp192
asg121
(lp193
(g112
g190
tp194
asg126
(lp195
ssg113
(dp196
g116
(lp197
(g113
S'w15'
p198
S's9'
p199
S'p'
tp200
asg121
(lp201
(g113
g198
tp202
asg126
(lp203
ss(lp204
(g123
g134
g142
g154
g164
g174
g183
g194
g202
tp205
a(g134
g142
g154
g164
g174
g183
g194
(g113
g198
g199
S'p'
t(g105
g118
g119
S'p'
ttp206
a(g142
g154
g164
g194
g202
(g106
g124
g105
S'n'
t(g105
g118
g111
S'n'
t(g111
g178
g147
S'p'
t(g110
g169
g171
S'p'
ttp207
aF-1
tp208
a(((S's9'
p209
S's8'
p210
S's3'
p211
S's2'
p212
S's1'
p213
S's7'
p214
S's4'
p215
S's12'
p216
S's11'
p217
t(S'w13'
S'w10'
S'w3'
S'w7'
S'w1'
S'w9'
S'w4'
S'w17'
S'w15'
tt(dp218
g209
(dp219
S'p_paths'
p220
(lp221
(g209
S'w13'
p222
S's11'
p223
S'p'
tp224
asS'edges'
p225
(lp226
(g209
g222
tp227
a(g209
S'w10'
p228
tp229
asS'n_paths'
p230
(lp231
(g209
g228
g210
S'n'
tp232
assg210
(dp233
g220
(lp234
sg225
(lp235
(g210
S'w10'
p236
tp237
asg230
(lp238
(g210
g236
g209
S'n'
tp239
assg211
(dp240
g220
(lp241
(g211
S'w3'
p242
S's2'
S'p'
tp243
a(g211
g242
S's4'
S'p'
tp244
asg225
(lp245
(g211
g242
tp246
asg230
(lp247
ssg212
(dp248
g220
(lp249
(g212
S'w7'
p250
S's7'
p251
S'p'
tp252
a(g212
S'w1'
p253
S's3'
p254
S'p'
tp255
asg225
(lp256
(g212
g250
tp257
a(g212
S'w4'
p258
tp259
a(g212
g253
tp260
asg230
(lp261
(g212
g258
g215
S'n'
tp262
a(g212
g253
g213
S'n'
tp263
assg213
(dp264
g220
(lp265
(g213
S'w1'
p266
g254
S'p'
tp267
asg225
(lp268
(g213
g266
tp269
asg230
(lp270
(g213
g266
g212
S'n'
tp271
assg214
(dp272
g220
(lp273
(g214
S'w9'
p274
S's2'
p275
S'p'
tp276
a(g214
g274
S's8'
p277
S'p'
tp278
asg225
(lp279
(g214
g274
tp280
asg230
(lp281
ssg215
(dp282
g220
(lp283
sg225
(lp284
(g215
S'w4'
p285
tp286
asg230
(lp287
(g215
g285
g212
S'n'
tp288
assg216
(dp289
g220
(lp290
(g216
S'w17'
p291
S's9'
S'p'
tp292
a(g216
g291
S's4'
S'p'
tp293
asg225
(lp294
(g216
g291
tp295
asg230
(lp296
ssg217
(dp297
g220
(lp298
(g217
S'w15'
p299
S's9'
p300
S'p'
tp301
a(g217
g299
S's4'
p302
S'p'
tp303
asg225
(lp304
(g217
g299
tp305
asg230
(lp306
ss(lp307
(g227
g237
g246
g257
g269
g280
g286
g295
g305
tp308
a(g237
g246
g257
g269
g280
g286
g295
(g217
g299
g300
S'p'
tp309
(g209
g222
g223
S'p'
tp310
tp311
a(g227
g237
g246
g269
g286
g295
g305
(g212
g250
g251
S'p'
tp312
(g214
g274
g275
S'p'
tp313
tp314
a(g246
g269
g295
(g210
g228
g209
S'n'
tg310
(g217
g299
g302
S'p'
t(g215
g258
g212
S'n'
tg312
(g214
g274
g277
S'p'
ttp315
a(g237
g246
g269
g286
g295
g309
g310
g312
g313
tp316
aF-1
tp317
a(((S's9'
p318
S's8'
p319
S's3'
p320
S's2'
p321
S's1'
p322
S's7'
p323
S's4'
p324
S's12'
p325
S's11'
p326
t(S'w13'
S'w10'
S'w3'
S'w7'
S'w1'
S'w9'
S'w4'
S'w18'
S'w15'
tt(dp327
g318
(dp328
S'p_paths'
p329
(lp330
(g318
S'w13'
p331
S's11'
p332
S'p'
tp333
asS'edges'
p334
(lp335
(g318
g331
tp336
a(g318
S'w10'
p337
tp338
asS'n_paths'
p339
(lp340
(g318
g337
g319
S'n'
tp341
assg319
(dp342
g329
(lp343
sg334
(lp344
(g319
S'w10'
p345
tp346
asg339
(lp347
(g319
g345
g318
S'n'
tp348
assg320
(dp349
g329
(lp350
(g320
S'w3'
p351
S's2'
S'p'
tp352
a(g320
g351
S's4'
S'p'
tp353
asg334
(lp354
(g320
g351
tp355
asg339
(lp356
ssg321
(dp357
g329
(lp358
(g321
S'w7'
p359
S's7'
p360
S'p'
tp361
a(g321
S'w1'
p362
S's3'
p363
S'p'
tp364
asg334
(lp365
(g321
g359
tp366
a(g321
S'w4'
p367
tp368
a(g321
g362
tp369
asg339
(lp370
(g321
g367
g324
S'n'
tp371
a(g321
g362
g322
S'n'
tp372
assg322
(dp373
g329
(lp374
(g322
S'w1'
p375
g363
S'p'
tp376
asg334
(lp377
(g322
g375
tp378
asg339
(lp379
(g322
g375
g321
S'n'
tp380
assg323
(dp381
g329
(lp382
(g323
S'w9'
p383
S's2'
p384
S'p'
tp385
a(g323
g383
S's8'
p386
S'p'
tp387
asg334
(lp388
(g323
g383
tp389
asg339
(lp390
ssg324
(dp391
g329
(lp392
sg334
(lp393
(g324
S'w4'
p394
tp395
asg339
(lp396
(g324
g394
g321
S'n'
tp397
assg325
(dp398
g329
(lp399
(g325
S'w18'
p400
S's1'
S'p'
tp401
a(g325
g400
S's9'
S'p'
tp402
asg334
(lp403
(g325
g400
tp404
asg339
(lp405
ssg326
(dp406
g329
(lp407
(g326
S'w15'
p408
S's9'
p409
S'p'
tp410
a(g326
g408
S's4'
p411
S'p'
tp412
asg334
(lp413
(g326
g408
tp414
asg339
(lp415
ss(lp416
(g336
g346
g355
g366
g378
g389
g395
g404
g414
tp417
a(g346
g355
g366
g378
g389
g395
g404
(g326
g408
g409
S'p'
tp418
(g318
g331
g332
S'p'
tp419
tp420
a(g336
g346
g355
g378
g395
g404
g414
(g321
g359
g360
S'p'
tp421
(g323
g383
g384
S'p'
tp422
tp423
a(g355
g378
g404
(g319
g337
g318
S'n'
tg419
(g326
g408
g411
S'p'
t(g324
g367
g321
S'n'
tg421
(g323
g383
g386
S'p'
ttp424
a(g346
g355
g378
g395
g404
g418
g419
g421
g422
tp425
aF-1
tp426
a(((S's9'
p427
S's8'
p428
S's3'
p429
S's2'
p430
S's7'
p431
S's6'
p432
S's4'
p433
S's12'
p434
S's11'
p435
t(S'w13'
S'w10'
S'w3'
S'w1'
S'w9'
S'w7'
S'w4'
S'w17'
S'w15'
tt(dp436
g427
(dp437
S'p_paths'
p438
(lp439
(g427
S'w13'
p440
S's11'
p441
S'p'
tp442
asS'edges'
p443
(lp444
(g427
g440
tp445
a(g427
S'w10'
p446
tp447
asS'n_paths'
p448
(lp449
(g427
g440
g432
S'n'
tp450
a(g427
g446
g428
S'n'
tp451
assg428
(dp452
g438
(lp453
sg443
(lp454
(g428
S'w10'
p455
tp456
asg448
(lp457
(g428
g455
g427
S'n'
tp458
assg429
(dp459
g438
(lp460
(g429
S'w3'
p461
S's2'
p462
S'p'
tp463
a(g429
g461
S's4'
p464
S'p'
tp465
asg443
(lp466
(g429
g461
tp467
asg448
(lp468
ssg430
(dp469
g438
(lp470
(g430
S'w7'
p471
S's7'
p472
S'p'
tp473
a(g430
S'w1'
p474
S's3'
p475
S'p'
tp476
asg443
(lp477
(g430
g471
tp478
a(g430
S'w4'
p479
tp480
a(g430
g474
tp481
asg448
(lp482
(g430
g471
g432
S'n'
tp483
a(g430
g479
g433
S'n'
tp484
assg435
(dp485
g438
(lp486
(g435
S'w15'
p487
S's9'
p488
S'p'
tp489
a(g435
g487
S's4'
S'p'
tp490
asg443
(lp491
(g435
g487
tp492
asg448
(lp493
ssg431
(dp494
g438
(lp495
(g431
S'w9'
p496
S's2'
S'p'
tp497
a(g431
g496
S's8'
p498
S'p'
tp499
asg443
(lp500
(g431
g496
tp501
asg448
(lp502
ssg432
(dp503
g438
(lp504
(g432
S'w7'
p505
g472
S'p'
tp506
a(g432
S'w13'
p507
g441
S'p'
tp508
asg443
(lp509
(g432
g505
tp510
a(g432
g507
tp511
asg448
(lp512
(g432
g505
g430
S'n'
tp513
a(g432
g507
g427
S'n'
tp514
assg433
(dp515
g438
(lp516
sg443
(lp517
(g433
S'w4'
p518
tp519
asg448
(lp520
(g433
g518
g430
S'n'
tp521
assg434
(dp522
g438
(lp523
(g434
S'w17'
p524
S's9'
S'p'
tp525
a(g434
g524
S's4'
S'p'
tp526
asg443
(lp527
(g434
g524
tp528
asg448
(lp529
ss(lp530
(g445
g456
g467
g481
g492
g501
g510
g519
g528
tp531
a(g456
g467
g481
g501
g510
g519
g528
(g435
g487
g488
S'p'
tp532
(g427
g440
g441
S'p'
tp533
tp534
a(g445
g456
g492
g501
g510
g519
g528
(g429
g461
g462
S'p'
tp535
(g430
g474
g475
S'p'
tp536
tp537
a(g445
g456
g492
g501
g510
g528
(g433
g479
g430
S'n'
tp538
g536
(g429
g461
g464
S'p'
tp539
tp540
a(g467
g481
g492
g519
g528
(g428
g446
g427
S'n'
tp541
(g427
g440
g432
S'n'
tp542
(g432
g505
g472
S'p'
tp543
(g431
g496
g498
S'p'
tp544
tp545
a(g456
g501
g510
g519
g528
g532
g533
g535
g536
tp546
a(g456
g501
g510
g528
g532
g533
g538
g536
g539
tp547
a(g492
g519
g528
g535
g536
g541
g542
g543
g544
tp548
a(g492
g528
g538
g536
g539
g541
g542
g543
g544
tp549
aF-1
tp550
a(((S's9'
p551
S's8'
p552
S's3'
p553
S's2'
p554
S's7'
p555
S's6'
p556
S's4'
p557
S's12'
p558
S's11'
p559
t(S'w13'
S'w10'
S'w3'
S'w1'
S'w9'
S'w7'
S'w4'
S'w18'
S'w15'
tt(dp560
g551
(dp561
S'p_paths'
p562
(lp563
(g551
S'w13'
p564
S's11'
p565
S'p'
tp566
asS'edges'
p567
(lp568
(g551
g564
tp569
a(g551
S'w10'
p570
tp571
asS'n_paths'
p572
(lp573
(g551
g564
g556
S'n'
tp574
a(g551
g570
g552
S'n'
tp575
assg552
(dp576
g562
(lp577
sg567
(lp578
(g552
S'w10'
p579
tp580
asg572
(lp581
(g552
g579
g551
S'n'
tp582
assg553
(dp583
g562
(lp584
(g553
S'w3'
p585
S's2'
p586
S'p'
tp587
a(g553
g585
S's4'
p588
S'p'
tp589
asg567
(lp590
(g553
g585
tp591
asg572
(lp592
ssg554
(dp593
g562
(lp594
(g554
S'w7'
p595
S's7'
p596
S'p'
tp597
a(g554
S'w1'
p598
S's3'
p599
S'p'
tp600
asg567
(lp601
(g554
g595
tp602
a(g554
S'w4'
p603
tp604
a(g554
g598
tp605
asg572
(lp606
(g554
g595
g556
S'n'
tp607
a(g554
g603
g557
S'n'
tp608
assg559
(dp609
g562
(lp610
(g559
S'w15'
p611
S's9'
p612
S'p'
tp613
a(g559
g611
S's4'
S'p'
tp614
asg567
(lp615
(g559
g611
tp616
asg572
(lp617
ssg555
(dp618
g562
(lp619
(g555
S'w9'
p620
S's2'
S'p'
tp621
a(g555
g620
S's8'
p622
S'p'
tp623
asg567
(lp624
(g555
g620
tp625
asg572
(lp626
ssg556
(dp627
g562
(lp628
(g556
S'w7'
p629
g596
S'p'
tp630
a(g556
S'w13'
p631
g565
S'p'
tp632
asg567
(lp633
(g556
g629
tp634
a(g556
g631
tp635
asg572
(lp636
(g556
g629
g554
S'n'
tp637
a(g556
g631
g551
S'n'
tp638
assg557
(dp639
g562
(lp640
sg567
(lp641
(g557
S'w4'
p642
tp643
asg572
(lp644
(g557
g642
g554
S'n'
tp645
assg558
(dp646
g562
(lp647
(g558
S'w18'
p648
S's9'
S'p'
tp649
asg567
(lp650
(g558
g648
tp651
asg572
(lp652
ss(lp653
(g569
g580
g591
g605
g616
g625
g634
g643
g651
tp654
a(g580
g591
g605
g625
g634
g643
g651
(g559
g611
g612
S'p'
tp655
(g551
g564
g565
S'p'
tp656
tp657
a(g569
g580
g616
g625
g634
g643
g651
(g553
g585
g586
S'p'
tp658
(g554
g598
g599
S'p'
tp659
tp660
a(g569
g580
g616
g625
g634
g651
(g557
g603
g554
S'n'
tp661
g659
(g553
g585
g588
S'p'
tp662
tp663
a(g591
g605
g616
g643
g651
(g552
g570
g551
S'n'
tp664
(g551
g564
g556
S'n'
tp665
(g556
g629
g596
S'p'
tp666
(g555
g620
g622
S'p'
tp667
tp668
a(g580
g625
g634
g643
g651
g655
g656
g658
g659
tp669
a(g580
g625
g634
g651
g655
g656
g661
g659
g662
tp670
a(g616
g643
g651
g658
g659
g664
g665
g666
g667
tp671
a(g616
g651
g661
g659
g662
g664
g665
g666
g667
tp672
aF-1
tp673
a(((S's9'
p674
S's8'
p675
S's3'
p676
S's1'
p677
S's7'
p678
S's6'
p679
S's5'
p680
S's12'
p681
S's11'
p682
t(S'w13'
S'w10'
S'w3'
S'w1'
S'w9'
S'w7'
S'w6'
S'w17'
S'w15'
tt(dp683
g674
(dp684
S'p_paths'
p685
(lp686
(g674
S'w13'
p687
S's11'
p688
S'p'
tp689
asS'edges'
p690
(lp691
(g674
g687
tp692
a(g674
S'w10'
p693
tp694
asS'n_paths'
p695
(lp696
(g674
g687
g679
S'n'
tp697
a(g674
g693
g675
S'n'
tp698
assg675
(dp699
g685
(lp700
sg690
(lp701
(g675
S'w10'
p702
tp703
asg695
(lp704
(g675
g702
g674
S'n'
tp705
assg676
(dp706
g685
(lp707
sg690
(lp708
(g676
S'w3'
tp709
asg695
(lp710
ssg681
(dp711
g685
(lp712
(g681
S'w17'
p713
S's9'
S'p'
tp714
asg690
(lp715
(g681
g713
tp716
asg695
(lp717
ssg677
(dp718
g685
(lp719
(g677
S'w1'
p720
S's3'
S'p'
tp721
asg690
(lp722
(g677
g720
tp723
asg695
(lp724
ssg678
(dp725
g685
(lp726
(g678
S'w9'
p727
S's8'
p728
S'p'
tp729
asg690
(lp730
(g678
g727
tp731
asg695
(lp732
ssg679
(dp733
g685
(lp734
(g679
S'w7'
p735
S's7'
p736
S'p'
tp737
a(g679
S'w13'
p738
g688
S'p'
tp739
asg690
(lp740
(g679
g735
tp741
a(g679
g738
tp742
asg695
(lp743
(g679
g738
g674
S'n'
tp744
assg680
(dp745
g685
(lp746
(g680
S'w6'
p747
S's6'
S'p'
tp748
asg690
(lp749
(g680
g747
tp750
asg695
(lp751
ssg682
(dp752
g685
(lp753
(g682
S'w15'
p754
S's9'
p755
S'p'
tp756
asg690
(lp757
(g682
g754
tp758
asg695
(lp759
ss(lp760
(g692
g703
g709
g716
g723
g731
g741
g750
g758
tp761
a(g703
g709
g716
g723
g731
g741
g750
(g682
g754
g755
S'p'
t(g674
g687
g688
S'p'
ttp762
a(g709
g716
g723
g750
g758
(g675
g693
g674
S'n'
t(g674
g687
g679
S'n'
t(g679
g735
g736
S'p'
t(g678
g727
g728
S'p'
ttp763
aF-1
tp764
a(((S's9'
p765
S's8'
p766
S's3'
p767
S's1'
p768
S's7'
p769
S's6'
p770
S's5'
p771
S's12'
p772
S's11'
p773
t(S'w13'
S'w10'
S'w3'
S'w1'
S'w9'
S'w7'
S'w6'
S'w18'
S'w15'
tt(dp774
g765
(dp775
S'p_paths'
p776
(lp777
(g765
S'w13'
p778
S's11'
p779
S'p'
tp780
asS'edges'
p781
(lp782
(g765
g778
tp783
a(g765
S'w10'
p784
tp785
asS'n_paths'
p786
(lp787
(g765
g778
g770
S'n'
tp788
a(g765
g784
g766
S'n'
tp789
assg766
(dp790
g776
(lp791
sg781
(lp792
(g766
S'w10'
p793
tp794
asg786
(lp795
(g766
g793
g765
S'n'
tp796
assg767
(dp797
g776
(lp798
sg781
(lp799
(g767
S'w3'
tp800
asg786
(lp801
ssg772
(dp802
g776
(lp803
(g772
S'w18'
p804
S's1'
S'p'
tp805
a(g772
g804
S's9'
S'p'
tp806
asg781
(lp807
(g772
g804
tp808
asg786
(lp809
ssg768
(dp810
g776
(lp811
(g768
S'w1'
p812
S's3'
S'p'
tp813
asg781
(lp814
(g768
g812
tp815
asg786
(lp816
ssg769
(dp817
g776
(lp818
(g769
S'w9'
p819
S's8'
p820
S'p'
tp821
asg781
(lp822
(g769
g819
tp823
asg786
(lp824
ssg770
(dp825
g776
(lp826
(g770
S'w7'
p827
S's7'
p828
S'p'
tp829
a(g770
S'w13'
p830
g779
S'p'
tp831
asg781
(lp832
(g770
g827
tp833
a(g770
g830
tp834
asg786
(lp835
(g770
g830
g765
S'n'
tp836
assg771
(dp837
g776
(lp838
(g771
S'w6'
p839
S's6'
S'p'
tp840
asg781
(lp841
(g771
g839
tp842
asg786
(lp843
ssg773
(dp844
g776
(lp845
(g773
S'w15'
p846
S's9'
p847
S'p'
tp848
asg781
(lp849
(g773
g846
tp850
asg786
(lp851
ss(lp852
(g783
g794
g800
g808
g815
g823
g833
g842
g850
tp853
a(g800
g808
g815
g842
g850
(g766
g784
g765
S'n'
t(g765
g778
g770
S'n'
t(g770
g827
g828
S'p'
t(g769
g819
g820
S'p'
ttp854
a(g794
g800
g808
g815
g823
g833
g842
(g765
g778
g779
S'p'
t(g773
g846
g847
S'p'
ttp855
aF-1
tp856
a(((S's9'
p857
S's8'
p858
S's3'
p859
S's1'
p860
S's7'
p861
S's6'
p862
S's5'
p863
S's12'
p864
S's11'
p865
t(S'w13'
S'w10'
S'w3'
S'w1'
S'w9'
S'w7'
S'w5'
S'w17'
S'w15'
tt(dp866
g857
(dp867
S'p_paths'
p868
(lp869
(g857
S'w13'
p870
S's11'
p871
S'p'
tp872
asS'edges'
p873
(lp874
(g857
g870
tp875
a(g857
S'w10'
p876
tp877
asS'n_paths'
p878
(lp879
(g857
g870
g862
S'n'
tp880
a(g857
g876
g858
S'n'
tp881
assg858
(dp882
g868
(lp883
sg873
(lp884
(g858
S'w10'
p885
tp886
asg878
(lp887
(g858
g885
g857
S'n'
tp888
assg859
(dp889
g868
(lp890
sg873
(lp891
(g859
S'w3'
tp892
asg878
(lp893
ssg864
(dp894
g868
(lp895
(g864
S'w17'
p896
S's9'
S'p'
tp897
asg873
(lp898
(g864
g896
tp899
asg878
(lp900
ssg860
(dp901
g868
(lp902
(g860
S'w1'
p903
S's3'
S'p'
tp904
asg873
(lp905
(g860
g903
tp906
asg878
(lp907
ssg861
(dp908
g868
(lp909
(g861
S'w9'
p910
S's8'
p911
S'p'
tp912
asg873
(lp913
(g861
g910
tp914
asg878
(lp915
ssg862
(dp916
g868
(lp917
(g862
S'w7'
p918
S's7'
p919
S'p'
tp920
a(g862
S'w13'
p921
g871
S'p'
tp922
asg873
(lp923
(g862
g918
tp924
a(g862
g921
tp925
asg878
(lp926
(g862
g921
g857
S'n'
tp927
assg863
(dp928
g868
(lp929
sg873
(lp930
(g863
S'w5'
tp931
asg878
(lp932
ssg865
(dp933
g868
(lp934
(g865
S'w15'
p935
S's9'
p936
S'p'
tp937
asg873
(lp938
(g865
g935
tp939
asg878
(lp940
ss(lp941
(g875
g886
g892
g899
g906
g914
g924
g931
g939
tp942
a(g886
g892
g899
g906
g914
g924
g931
(g865
g935
g936
S'p'
t(g857
g870
g871
S'p'
ttp943
a(g892
g899
g906
g931
g939
(g858
g876
g857
S'n'
t(g857
g870
g862
S'n'
t(g862
g918
g919
S'p'
t(g861
g910
g911
S'p'
ttp944
aF-1
tp945
a(((S's9'
p946
S's8'
p947
S's3'
p948
S's1'
p949
S's7'
p950
S's6'
p951
S's5'
p952
S's12'
p953
S's11'
p954
t(S'w13'
S'w10'
S'w3'
S'w1'
S'w9'
S'w7'
S'w5'
S'w18'
S'w15'
tt(dp955
g946
(dp956
S'p_paths'
p957
(lp958
(g946
S'w13'
p959
S's11'
p960
S'p'
tp961
asS'edges'
p962
(lp963
(g946
g959
tp964
a(g946
S'w10'
p965
tp966
asS'n_paths'
p967
(lp968
(g946
g959
g951
S'n'
tp969
a(g946
g965
g947
S'n'
tp970
assg947
(dp971
g957
(lp972
sg962
(lp973
(g947
S'w10'
p974
tp975
asg967
(lp976
(g947
g974
g946
S'n'
tp977
assg948
(dp978
g957
(lp979
sg962
(lp980
(g948
S'w3'
tp981
asg967
(lp982
ssg953
(dp983
g957
(lp984
(g953
S'w18'
p985
S's1'
S'p'
tp986
a(g953
g985
S's9'
S'p'
tp987
asg962
(lp988
(g953
g985
tp989
asg967
(lp990
ssg949
(dp991
g957
(lp992
(g949
S'w1'
p993
S's3'
S'p'
tp994
asg962
(lp995
(g949
g993
tp996
asg967
(lp997
ssg950
(dp998
g957
(lp999
(g950
S'w9'
p1000
S's8'
p1001
S'p'
tp1002
asg962
(lp1003
(g950
g1000
tp1004
asg967
(lp1005
ssg951
(dp1006
g957
(lp1007
(g951
S'w7'
p1008
S's7'
p1009
S'p'
tp1010
a(g951
S'w13'
p1011
g960
S'p'
tp1012
asg962
(lp1013
(g951
g1008
tp1014
a(g951
g1011
tp1015
asg967
(lp1016
(g951
g1011
g946
S'n'
tp1017
assg952
(dp1018
g957
(lp1019
sg962
(lp1020
(g952
S'w5'
tp1021
asg967
(lp1022
ssg954
(dp1023
g957
(lp1024
(g954
S'w15'
p1025
S's9'
p1026
S'p'
tp1027
asg962
(lp1028
(g954
g1025
tp1029
asg967
(lp1030
ss(lp1031
(g964
g975
g981
g989
g996
g1004
g1014
g1021
g1029
tp1032
a(g981
g989
g996
g1021
g1029
(g947
g965
g946
S'n'
t(g946
g959
g951
S'n'
t(g951
g1008
g1009
S'p'
t(g950
g1000
g1001
S'p'
ttp1033
a(g975
g981
g989
g996
g1004
g1014
g1021
(g946
g959
g960
S'p'
t(g954
g1025
g1026
S'p'
ttp1034
aF-1
tp1035
a(((S's9'
p1036
S's8'
p1037
S's3'
p1038
S's1'
p1039
S's7'
p1040
S's6'
p1041
S's4'
p1042
S's12'
p1043
S's11'
p1044
t(S'w13'
S'w10'
S'w3'
S'w1'
S'w9'
S'w7'
S'w4'
S'w17'
S'w15'
tt(dp1045
g1036
(dp1046
S'p_paths'
p1047
(lp1048
(g1036
S'w13'
p1049
S's11'
p1050
S'p'
tp1051
asS'edges'
p1052
(lp1053
(g1036
g1049
tp1054
a(g1036
S'w10'
p1055
tp1056
asS'n_paths'
p1057
(lp1058
(g1036
g1049
g1041
S'n'
tp1059
a(g1036
g1055
g1037
S'n'
tp1060
assg1037
(dp1061
g1047
(lp1062
sg1052
(lp1063
(g1037
S'w10'
p1064
tp1065
asg1057
(lp1066
(g1037
g1064
g1036
S'n'
tp1067
assg1038
(dp1068
g1047
(lp1069
(g1038
S'w3'
p1070
S's4'
S'p'
tp1071
asg1052
(lp1072
(g1038
g1070
tp1073
asg1057
(lp1074
ssg1043
(dp1075
g1047
(lp1076
(g1043
S'w17'
p1077
S's9'
S'p'
tp1078
a(g1043
g1077
S's4'
S'p'
tp1079
asg1052
(lp1080
(g1043
g1077
tp1081
asg1057
(lp1082
ssg1039
(dp1083
g1047
(lp1084
(g1039
S'w1'
p1085
S's3'
S'p'
tp1086
asg1052
(lp1087
(g1039
g1085
tp1088
asg1057
(lp1089
ssg1040
(dp1090
g1047
(lp1091
(g1040
S'w9'
p1092
S's8'
p1093
S'p'
tp1094
asg1052
(lp1095
(g1040
g1092
tp1096
asg1057
(lp1097
ssg1041
(dp1098
g1047
(lp1099
(g1041
S'w7'
p1100
S's7'
p1101
S'p'
tp1102
a(g1041
S'w13'
p1103
g1050
S'p'
tp1104
asg1052
(lp1105
(g1041
g1100
tp1106
a(g1041
g1103
tp1107
asg1057
(lp1108
(g1041
g1103
g1036
S'n'
tp1109
assg1042
(dp1110
g1047
(lp1111
sg1052
(lp1112
(g1042
S'w4'
tp1113
asg1057
(lp1114
ssg1044
(dp1115
g1047
(lp1116
(g1044
S'w15'
p1117
S's9'
p1118
S'p'
tp1119
a(g1044
g1117
S's4'
S'p'
tp1120
asg1052
(lp1121
(g1044
g1117
tp1122
asg1057
(lp1123
ss(lp1124
(g1054
g1065
g1073
g1081
g1088
g1096
g1106
g1113
g1122
tp1125
a(g1065
g1073
g1081
g1088
g1096
g1106
g1113
(g1044
g1117
g1118
S'p'
t(g1036
g1049
g1050
S'p'
ttp1126
a(g1073
g1081
g1088
g1113
g1122
(g1037
g1055
g1036
S'n'
t(g1036
g1049
g1041
S'n'
t(g1041
g1100
g1101
S'p'
t(g1040
g1092
g1093
S'p'
ttp1127
aF-1
tp1128
a(((S's9'
p1129
S's8'
p1130
S's3'
p1131
S's1'
p1132
S's7'
p1133
S's6'
p1134
S's4'
p1135
S's12'
p1136
S's11'
p1137
t(S'w13'
S'w10'
S'w3'
S'w1'
S'w9'
S'w7'
S'w4'
S'w18'
S'w15'
tt(dp1138
g1129
(dp1139
S'p_paths'
p1140
(lp1141
(g1129
S'w13'
p1142
S's11'
p1143
S'p'
tp1144
asS'edges'
p1145
(lp1146
(g1129
g1142
tp1147
a(g1129
S'w10'
p1148
tp1149
asS'n_paths'
p1150
(lp1151
(g1129
g1142
g1134
S'n'
tp1152
a(g1129
g1148
g1130
S'n'
tp1153
assg1130
(dp1154
g1140
(lp1155
sg1145
(lp1156
(g1130
S'w10'
p1157
tp1158
asg1150
(lp1159
(g1130
g1157
g1129
S'n'
tp1160
assg1131
(dp1161
g1140
(lp1162
(g1131
S'w3'
p1163
S's4'
S'p'
tp1164
asg1145
(lp1165
(g1131
g1163
tp1166
asg1150
(lp1167
ssg1136
(dp1168
g1140
(lp1169
(g1136
S'w18'
p1170
S's1'
S'p'
tp1171
a(g1136
g1170
S's9'
S'p'
tp1172
asg1145
(lp1173
(g1136
g1170
tp1174
asg1150
(lp1175
ssg1132
(dp1176
g1140
(lp1177
(g1132
S'w1'
p1178
S's3'
S'p'
tp1179
asg1145
(lp1180
(g1132
g1178
tp1181
asg1150
(lp1182
ssg1133
(dp1183
g1140
(lp1184
(g1133
S'w9'
p1185
S's8'
p1186
S'p'
tp1187
asg1145
(lp1188
(g1133
g1185
tp1189
asg1150
(lp1190
ssg1134
(dp1191
g1140
(lp1192
(g1134
S'w7'
p1193
S's7'
p1194
S'p'
tp1195
a(g1134
S'w13'
p1196
g1143
S'p'
tp1197
asg1145
(lp1198
(g1134
g1193
tp1199
a(g1134
g1196
tp1200
asg1150
(lp1201
(g1134
g1196
g1129
S'n'
tp1202
assg1135
(dp1203
g1140
(lp1204
sg1145
(lp1205
(g1135
S'w4'
tp1206
asg1150
(lp1207
ssg1137
(dp1208
g1140
(lp1209
(g1137
S'w15'
p1210
S's9'
p1211
S'p'
tp1212
a(g1137
g1210
S's4'
S'p'
tp1213
asg1145
(lp1214
(g1137
g1210
tp1215
asg1150
(lp1216
ss(lp1217
(g1147
g1158
g1166
g1174
g1181
g1189
g1199
g1206
g1215
tp1218
a(g1158
g1166
g1174
g1181
g1189
g1199
g1206
(g1137
g1210
g1211
S'p'
t(g1129
g1142
g1143
S'p'
ttp1219
a(g1166
g1174
g1181
g1206
g1215
(g1130
g1148
g1129
S'n'
t(g1129
g1142
g1134
S'n'
t(g1134
g1193
g1194
S'p'
t(g1133
g1185
g1186
S'p'
ttp1220
aF-1
tp1221
a(((S's9'
p1222
S's8'
p1223
S's3'
p1224
S's10'
p1225
S's7'
p1226
S's6'
p1227
S's5'
p1228
S's4'
p1229
S's12'
p1230
t(S'w16'
S'w10'
S'w3'
S'w12'
S'w9'
S'w13'
S'w6'
S'w4'
S'w18'
tt(dp1231
g1222
(dp1232
S'p_paths'
p1233
(lp1234
(g1222
S'w16'
p1235
S's12'
p1236
S'p'
tp1237
a(g1222
S'w10'
p1238
S's10'
p1239
S'p'
tp1240
asS'edges'
p1241
(lp1242
(g1222
g1235
tp1243
a(g1222
S'w13'
p1244
tp1245
a(g1222
g1238
tp1246
asS'n_paths'
p1247
(lp1248
(g1222
g1235
g1229
S'n'
tp1249
a(g1222
g1244
g1227
S'n'
tp1250
a(g1222
g1238
g1223
S'n'
tp1251
assg1223
(dp1252
g1233
(lp1253
(g1223
S'w10'
p1254
g1239
S'p'
tp1255
asg1241
(lp1256
(g1223
g1254
tp1257
asg1247
(lp1258
(g1223
g1254
g1222
S'n'
tp1259
assg1224
(dp1260
g1233
(lp1261
(g1224
S'w3'
p1262
S's4'
S'p'
tp1263
asg1241
(lp1264
(g1224
g1262
tp1265
asg1247
(lp1266
ssg1230
(dp1267
g1233
(lp1268
(g1230
S'w18'
p1269
S's9'
p1270
S'p'
tp1271
asg1241
(lp1272
(g1230
g1269
tp1273
asg1247
(lp1274
ssg1225
(dp1275
g1233
(lp1276
(g1225
S'w12'
p1277
S's9'
S'p'
tp1278
a(g1225
g1277
S's6'
S'p'
tp1279
asg1241
(lp1280
(g1225
g1277
tp1281
asg1247
(lp1282
ssg1226
(dp1283
g1233
(lp1284
(g1226
S'w9'
p1285
S's8'
S'p'
tp1286
asg1241
(lp1287
(g1226
g1285
tp1288
asg1247
(lp1289
ssg1227
(dp1290
g1233
(lp1291
sg1241
(lp1292
(g1227
S'w13'
p1293
tp1294
asg1247
(lp1295
(g1227
g1293
g1222
S'n'
tp1296
assg1228
(dp1297
g1233
(lp1298
(g1228
S'w6'
p1299
S's6'
p1300
S'p'
tp1301
asg1241
(lp1302
(g1228
g1299
tp1303
asg1247
(lp1304
ssg1229
(dp1305
g1233
(lp1306
(g1229
S'w16'
p1307
g1236
S'p'
tp1308
a(g1229
S'w4'
p1309
S's5'
p1310
S'p'
tp1311
asg1241
(lp1312
(g1229
g1307
tp1313
a(g1229
g1309
tp1314
asg1247
(lp1315
(g1229
g1307
g1222
S'n'
tp1316
ass(lp1317
(g1243
g1257
g1265
g1273
g1281
g1288
g1294
g1303
g1314
tp1318
a(g1257
g1265
g1281
g1288
g1294
g1303
g1314
(g1230
g1269
g1270
S'p'
t(g1222
g1235
g1236
S'p'
ttp1319
a(g1257
g1265
g1273
g1281
g1288
(g1222
g1235
g1229
S'n'
t(g1229
g1309
g1310
S'p'
t(g1228
g1299
g1300
S'p'
t(g1227
g1244
g1222
S'n'
ttp1320
aF-1
tp1321
a(((S's9'
p1322
S's8'
p1323
S's3'
p1324
S's10'
p1325
S's7'
p1326
S's6'
p1327
S's5'
p1328
S's4'
p1329
S's12'
p1330
t(S'w16'
S'w10'
S'w3'
S'w12'
S'w8'
S'w13'
S'w6'
S'w4'
S'w18'
tt(dp1331
g1322
(dp1332
S'p_paths'
p1333
(lp1334
(g1322
S'w16'
p1335
S's12'
p1336
S'p'
tp1337
a(g1322
S'w10'
p1338
S's10'
p1339
S'p'
tp1340
asS'edges'
p1341
(lp1342
(g1322
g1335
tp1343
a(g1322
S'w13'
p1344
tp1345
a(g1322
g1338
tp1346
asS'n_paths'
p1347
(lp1348
(g1322
g1335
g1329
S'n'
tp1349
a(g1322
g1344
g1327
S'n'
tp1350
a(g1322
g1338
g1323
S'n'
tp1351
assg1323
(dp1352
g1333
(lp1353
(g1323
S'w10'
p1354
g1339
S'p'
tp1355
asg1341
(lp1356
(g1323
g1354
tp1357
asg1347
(lp1358
(g1323
g1354
g1322
S'n'
tp1359
assg1324
(dp1360
g1333
(lp1361
(g1324
S'w3'
p1362
S's4'
S'p'
tp1363
asg1341
(lp1364
(g1324
g1362
tp1365
asg1347
(lp1366
ssg1330
(dp1367
g1333
(lp1368
(g1330
S'w18'
p1369
S's9'
p1370
S'p'
tp1371
asg1341
(lp1372
(g1330
g1369
tp1373
asg1347
(lp1374
ssg1325
(dp1375
g1333
(lp1376
(g1325
S'w12'
p1377
S's9'
S'p'
tp1378
a(g1325
g1377
S's6'
S'p'
tp1379
asg1341
(lp1380
(g1325
g1377
tp1381
asg1347
(lp1382
ssg1326
(dp1383
g1333
(lp1384
(g1326
S'w8'
p1385
S's6'
S'p'
tp1386
asg1341
(lp1387
(g1326
g1385
tp1388
asg1347
(lp1389
ssg1327
(dp1390
g1333
(lp1391
sg1341
(lp1392
(g1327
S'w13'
p1393
tp1394
asg1347
(lp1395
(g1327
g1393
g1322
S'n'
tp1396
assg1328
(dp1397
g1333
(lp1398
(g1328
S'w6'
p1399
S's6'
p1400
S'p'
tp1401
asg1341
(lp1402
(g1328
g1399
tp1403
asg1347
(lp1404
ssg1329
(dp1405
g1333
(lp1406
(g1329
S'w16'
p1407
g1336
S'p'
tp1408
a(g1329
S'w4'
p1409
S's5'
p1410
S'p'
tp1411
asg1341
(lp1412
(g1329
g1407
tp1413
a(g1329
g1409
tp1414
asg1347
(lp1415
(g1329
g1407
g1322
S'n'
tp1416
ass(lp1417
(g1343
g1357
g1365
g1373
g1381
g1388
g1394
g1403
g1414
tp1418
a(g1357
g1365
g1381
g1388
g1394
g1403
g1414
(g1330
g1369
g1370
S'p'
t(g1322
g1335
g1336
S'p'
ttp1419
a(g1357
g1365
g1373
g1381
g1388
(g1322
g1335
g1329
S'n'
t(g1329
g1409
g1410
S'p'
t(g1328
g1399
g1400
S'p'
t(g1327
g1344
g1322
S'n'
ttp1420
aF-1
tp1421
a(((S's9'
p1422
S's8'
p1423
S's3'
p1424
S's10'
p1425
S's7'
p1426
S's6'
p1427
S's5'
p1428
S's4'
p1429
S's12'
p1430
t(S'w16'
S'w10'
S'w2'
S'w12'
S'w9'
S'w13'
S'w6'
S'w4'
S'w18'
tt(dp1431
g1422
(dp1432
S'p_paths'
p1433
(lp1434
(g1422
S'w16'
p1435
S's12'
p1436
S'p'
tp1437
a(g1422
S'w10'
p1438
S's10'
p1439
S'p'
tp1440
asS'edges'
p1441
(lp1442
(g1422
g1435
tp1443
a(g1422
S'w13'
p1444
tp1445
a(g1422
g1438
tp1446
asS'n_paths'
p1447
(lp1448
(g1422
g1435
g1429
S'n'
tp1449
a(g1422
g1444
g1427
S'n'
tp1450
a(g1422
g1438
g1423
S'n'
tp1451
assg1423
(dp1452
g1433
(lp1453
(g1423
S'w10'
p1454
g1439
S'p'
tp1455
asg1441
(lp1456
(g1423
g1454
tp1457
asg1447
(lp1458
(g1423
g1454
g1422
S'n'
tp1459
assg1424
(dp1460
g1433
(lp1461
sg1441
(lp1462
(g1424
S'w2'
tp1463
asg1447
(lp1464
ssg1430
(dp1465
g1433
(lp1466
(g1430
S'w18'
p1467
S's9'
p1468
S'p'
tp1469
asg1441
(lp1470
(g1430
g1467
tp1471
asg1447
(lp1472
ssg1425
(dp1473
g1433
(lp1474
(g1425
S'w12'
p1475
S's9'
S'p'
tp1476
a(g1425
g1475
S's6'
S'p'
tp1477
asg1441
(lp1478
(g1425
g1475
tp1479
asg1447
(lp1480
ssg1426
(dp1481
g1433
(lp1482
(g1426
S'w9'
p1483
S's8'
S'p'
tp1484
asg1441
(lp1485
(g1426
g1483
tp1486
asg1447
(lp1487
ssg1427
(dp1488
g1433
(lp1489
sg1441
(lp1490
(g1427
S'w13'
p1491
tp1492
asg1447
(lp1493
(g1427
g1491
g1422
S'n'
tp1494
assg1428
(dp1495
g1433
(lp1496
(g1428
S'w6'
p1497
S's6'
p1498
S'p'
tp1499
asg1441
(lp1500
(g1428
g1497
tp1501
asg1447
(lp1502
ssg1429
(dp1503
g1433
(lp1504
(g1429
S'w16'
p1505
g1436
S'p'
tp1506
a(g1429
S'w4'
p1507
S's5'
p1508
S'p'
tp1509
asg1441
(lp1510
(g1429
g1505
tp1511
a(g1429
g1507
tp1512
asg1447
(lp1513
(g1429
g1505
g1422
S'n'
tp1514
ass(lp1515
(g1443
g1457
g1463
g1471
g1479
g1486
g1492
g1501
g1512
tp1516
a(g1457
g1463
g1479
g1486
g1492
g1501
g1512
(g1430
g1467
g1468
S'p'
t(g1422
g1435
g1436
S'p'
ttp1517
a(g1457
g1463
g1471
g1479
g1486
(g1422
g1435
g1429
S'n'
t(g1429
g1507
g1508
S'p'
t(g1428
g1497
g1498
S'p'
t(g1427
g1444
g1422
S'n'
ttp1518
aF-1
tp1519
a(((S's9'
p1520
S's8'
p1521
S's3'
p1522
S's10'
p1523
S's7'
p1524
S's6'
p1525
S's5'
p1526
S's4'
p1527
S's12'
p1528
t(S'w16'
S'w10'
S'w2'
S'w12'
S'w8'
S'w13'
S'w6'
S'w4'
S'w18'
tt(dp1529
g1520
(dp1530
S'p_paths'
p1531
(lp1532
(g1520
S'w16'
p1533
S's12'
p1534
S'p'
tp1535
a(g1520
S'w10'
p1536
S's10'
p1537
S'p'
tp1538
asS'edges'
p1539
(lp1540
(g1520
g1533
tp1541
a(g1520
S'w13'
p1542
tp1543
a(g1520
g1536
tp1544
asS'n_paths'
p1545
(lp1546
(g1520
g1533
g1527
S'n'
tp1547
a(g1520
g1542
g1525
S'n'
tp1548
a(g1520
g1536
g1521
S'n'
tp1549
assg1521
(dp1550
g1531
(lp1551
(g1521
S'w10'
p1552
g1537
S'p'
tp1553
asg1539
(lp1554
(g1521
g1552
tp1555
asg1545
(lp1556
(g1521
g1552
g1520
S'n'
tp1557
assg1522
(dp1558
g1531
(lp1559
sg1539
(lp1560
(g1522
S'w2'
tp1561
asg1545
(lp1562
ssg1528
(dp1563
g1531
(lp1564
(g1528
S'w18'
p1565
S's9'
p1566
S'p'
tp1567
asg1539
(lp1568
(g1528
g1565
tp1569
asg1545
(lp1570
ssg1523
(dp1571
g1531
(lp1572
(g1523
S'w12'
p1573
S's9'
S'p'
tp1574
a(g1523
g1573
S's6'
S'p'
tp1575
asg1539
(lp1576
(g1523
g1573
tp1577
asg1545
(lp1578
ssg1524
(dp1579
g1531
(lp1580
(g1524
S'w8'
p1581
S's6'
S'p'
tp1582
asg1539
(lp1583
(g1524
g1581
tp1584
asg1545
(lp1585
ssg1525
(dp1586
g1531
(lp1587
sg1539
(lp1588
(g1525
S'w13'
p1589
tp1590
asg1545
(lp1591
(g1525
g1589
g1520
S'n'
tp1592
assg1526
(dp1593
g1531
(lp1594
(g1526
S'w6'
p1595
S's6'
p1596
S'p'
tp1597
asg1539
(lp1598
(g1526
g1595
tp1599
asg1545
(lp1600
ssg1527
(dp1601
g1531
(lp1602
(g1527
S'w16'
p1603
g1534
S'p'
tp1604
a(g1527
S'w4'
p1605
S's5'
p1606
S'p'
tp1607
asg1539
(lp1608
(g1527
g1603
tp1609
a(g1527
g1605
tp1610
asg1545
(lp1611
(g1527
g1603
g1520
S'n'
tp1612
ass(lp1613
(g1541
g1555
g1561
g1569
g1577
g1584
g1590
g1599
g1610
tp1614
a(g1555
g1561
g1577
g1584
g1590
g1599
g1610
(g1528
g1565
g1566
S'p'
t(g1520
g1533
g1534
S'p'
ttp1615
a(g1555
g1561
g1569
g1577
g1584
(g1520
g1533
g1527
S'n'
t(g1527
g1605
g1606
S'p'
t(g1526
g1595
g1596
S'p'
t(g1525
g1542
g1520
S'n'
ttp1616
aF-1
tp1617
a(((S's9'
p1618
S's8'
p1619
S's3'
p1620
S's7'
p1621
S's6'
p1622
S's5'
p1623
S's4'
p1624
S's12'
p1625
S's11'
p1626
t(S'w16'
S'w10'
S'w3'
S'w9'
S'w7'
S'w6'
S'w4'
S'w18'
S'w15'
tt(dp1627
g1618
(dp1628
S'p_paths'
p1629
(lp1630
(g1618
S'w16'
p1631
S's12'
p1632
S'p'
tp1633
asS'edges'
p1634
(lp1635
(g1618
g1631
tp1636
a(g1618
S'w10'
p1637
tp1638
asS'n_paths'
p1639
(lp1640
(g1618
g1631
g1624
S'n'
tp1641
a(g1618
g1637
g1619
S'n'
tp1642
assg1619
(dp1643
g1629
(lp1644
sg1634
(lp1645
(g1619
S'w10'
p1646
tp1647
asg1639
(lp1648
(g1619
g1646
g1618
S'n'
tp1649
assg1620
(dp1650
g1629
(lp1651
(g1620
S'w3'
p1652
S's4'
S'p'
tp1653
asg1634
(lp1654
(g1620
g1652
tp1655
asg1639
(lp1656
ssg1625
(dp1657
g1629
(lp1658
(g1625
S'w18'
p1659
S's9'
p1660
S'p'
tp1661
asg1634
(lp1662
(g1625
g1659
tp1663
asg1639
(lp1664
ssg1626
(dp1665
g1629
(lp1666
(g1626
S'w15'
p1667
S's9'
S'p'
tp1668
a(g1626
g1667
S's4'
S'p'
tp1669
asg1634
(lp1670
(g1626
g1667
tp1671
asg1639
(lp1672
ssg1621
(dp1673
g1629
(lp1674
(g1621
S'w9'
p1675
S's8'
p1676
S'p'
tp1677
asg1634
(lp1678
(g1621
g1675
tp1679
asg1639
(lp1680
ssg1622
(dp1681
g1629
(lp1682
(g1622
S'w7'
p1683
S's7'
p1684
S'p'
tp1685
asg1634
(lp1686
(g1622
g1683
tp1687
asg1639
(lp1688
ssg1623
(dp1689
g1629
(lp1690
(g1623
S'w6'
p1691
S's6'
p1692
S'p'
tp1693
asg1634
(lp1694
(g1623
g1691
tp1695
asg1639
(lp1696
ssg1624
(dp1697
g1629
(lp1698
(g1624
S'w16'
p1699
g1632
S'p'
tp1700
a(g1624
S'w4'
p1701
S's5'
p1702
S'p'
tp1703
asg1634
(lp1704
(g1624
g1699
tp1705
a(g1624
g1701
tp1706
asg1639
(lp1707
(g1624
g1699
g1618
S'n'
tp1708
ass(lp1709
(g1636
g1647
g1655
g1663
g1671
g1679
g1687
g1695
g1706
tp1710
a(g1655
g1663
g1671
(g1619
g1637
g1618
S'n'
t(g1618
g1631
g1624
S'n'
t(g1624
g1701
g1702
S'p'
t(g1623
g1691
g1692
S'p'
t(g1622
g1683
g1684
S'p'
t(g1621
g1675
g1676
S'p'
ttp1711
a(g1647
g1655
g1671
g1679
g1687
g1695
g1706
(g1618
g1631
g1632
S'p'
t(g1625
g1659
g1660
S'p'
ttp1712
aF-1
tp1713
a(((S's9'
p1714
S's8'
p1715
S's3'
p1716
S's7'
p1717
S's6'
p1718
S's5'
p1719
S's4'
p1720
S's12'
p1721
S's11'
p1722
t(S'w16'
S'w10'
S'w3'
S'w9'
S'w7'
S'w6'
S'w4'
S'w18'
S'w14'
tt(dp1723
g1714
(dp1724
S'p_paths'
p1725
(lp1726
(g1714
S'w16'
p1727
S's12'
p1728
S'p'
tp1729
asS'edges'
p1730
(lp1731
(g1714
g1727
tp1732
a(g1714
S'w10'
p1733
tp1734
asS'n_paths'
p1735
(lp1736
(g1714
g1727
g1720
S'n'
tp1737
a(g1714
g1733
g1715
S'n'
tp1738
assg1715
(dp1739
g1725
(lp1740
sg1730
(lp1741
(g1715
S'w10'
p1742
tp1743
asg1735
(lp1744
(g1715
g1742
g1714
S'n'
tp1745
assg1716
(dp1746
g1725
(lp1747
(g1716
S'w3'
p1748
S's4'
S'p'
tp1749
asg1730
(lp1750
(g1716
g1748
tp1751
asg1735
(lp1752
ssg1721
(dp1753
g1725
(lp1754
(g1721
S'w18'
p1755
S's9'
p1756
S'p'
tp1757
asg1730
(lp1758
(g1721
g1755
tp1759
asg1735
(lp1760
ssg1722
(dp1761
g1725
(lp1762
(g1722
S'w14'
p1763
S's9'
S'p'
tp1764
a(g1722
g1763
S's6'
S'p'
tp1765
asg1730
(lp1766
(g1722
g1763
tp1767
asg1735
(lp1768
ssg1717
(dp1769
g1725
(lp1770
(g1717
S'w9'
p1771
S's8'
p1772
S'p'
tp1773
asg1730
(lp1774
(g1717
g1771
tp1775
asg1735
(lp1776
ssg1718
(dp1777
g1725
(lp1778
(g1718
S'w7'
p1779
S's7'
p1780
S'p'
tp1781
asg1730
(lp1782
(g1718
g1779
tp1783
asg1735
(lp1784
ssg1719
(dp1785
g1725
(lp1786
(g1719
S'w6'
p1787
S's6'
p1788
S'p'
tp1789
asg1730
(lp1790
(g1719
g1787
tp1791
asg1735
(lp1792
ssg1720
(dp1793
g1725
(lp1794
(g1720
S'w16'
p1795
g1728
S'p'
tp1796
a(g1720
S'w4'
p1797
S's5'
p1798
S'p'
tp1799
asg1730
(lp1800
(g1720
g1795
tp1801
a(g1720
g1797
tp1802
asg1735
(lp1803
(g1720
g1795
g1714
S'n'
tp1804
ass(lp1805
(g1732
g1743
g1751
g1759
g1767
g1775
g1783
g1791
g1802
tp1806
a(g1751
g1759
g1767
(g1715
g1733
g1714
S'n'
t(g1714
g1727
g1720
S'n'
t(g1720
g1797
g1798
S'p'
t(g1719
g1787
g1788
S'p'
t(g1718
g1779
g1780
S'p'
t(g1717
g1771
g1772
S'p'
ttp1807
a(g1743
g1751
g1767
g1775
g1783
g1791
g1802
(g1714
g1727
g1728
S'p'
t(g1721
g1755
g1756
S'p'
ttp1808
aF-1
tp1809
a(((S's9'
p1810
S's8'
p1811
S's3'
p1812
S's7'
p1813
S's6'
p1814
S's5'
p1815
S's4'
p1816
S's12'
p1817
S's11'
p1818
t(S'w16'
S'w10'
S'w2'
S'w9'
S'w7'
S'w6'
S'w4'
S'w18'
S'w15'
tt(dp1819
g1810
(dp1820
S'p_paths'
p1821
(lp1822
(g1810
S'w16'
p1823
S's12'
p1824
S'p'
tp1825
asS'edges'
p1826
(lp1827
(g1810
g1823
tp1828
a(g1810
S'w10'
p1829
tp1830
asS'n_paths'
p1831
(lp1832
(g1810
g1823
g1816
S'n'
tp1833
a(g1810
g1829
g1811
S'n'
tp1834
assg1811
(dp1835
g1821
(lp1836
sg1826
(lp1837
(g1811
S'w10'
p1838
tp1839
asg1831
(lp1840
(g1811
g1838
g1810
S'n'
tp1841
assg1812
(dp1842
g1821
(lp1843
sg1826
(lp1844
(g1812
S'w2'
tp1845
asg1831
(lp1846
ssg1817
(dp1847
g1821
(lp1848
(g1817
S'w18'
p1849
S's9'
p1850
S'p'
tp1851
asg1826
(lp1852
(g1817
g1849
tp1853
asg1831
(lp1854
ssg1818
(dp1855
g1821
(lp1856
(g1818
S'w15'
p1857
S's9'
S'p'
tp1858
a(g1818
g1857
S's4'
S'p'
tp1859
asg1826
(lp1860
(g1818
g1857
tp1861
asg1831
(lp1862
ssg1813
(dp1863
g1821
(lp1864
(g1813
S'w9'
p1865
S's8'
p1866
S'p'
tp1867
asg1826
(lp1868
(g1813
g1865
tp1869
asg1831
(lp1870
ssg1814
(dp1871
g1821
(lp1872
(g1814
S'w7'
p1873
S's7'
p1874
S'p'
tp1875
asg1826
(lp1876
(g1814
g1873
tp1877
asg1831
(lp1878
ssg1815
(dp1879
g1821
(lp1880
(g1815
S'w6'
p1881
S's6'
p1882
S'p'
tp1883
asg1826
(lp1884
(g1815
g1881
tp1885
asg1831
(lp1886
ssg1816
(dp1887
g1821
(lp1888
(g1816
S'w16'
p1889
g1824
S'p'
tp1890
a(g1816
S'w4'
p1891
S's5'
p1892
S'p'
tp1893
asg1826
(lp1894
(g1816
g1889
tp1895
a(g1816
g1891
tp1896
asg1831
(lp1897
(g1816
g1889
g1810
S'n'
tp1898
ass(lp1899
(g1828
g1839
g1845
g1853
g1861
g1869
g1877
g1885
g1896
tp1900
a(g1845
g1853
g1861
(g1811
g1829
g1810
S'n'
t(g1810
g1823
g1816
S'n'
t(g1816
g1891
g1892
S'p'
t(g1815
g1881
g1882
S'p'
t(g1814
g1873
g1874
S'p'
t(g1813
g1865
g1866
S'p'
ttp1901
a(g1839
g1845
g1861
g1869
g1877
g1885
g1896
(g1810
g1823
g1824
S'p'
t(g1817
g1849
g1850
S'p'
ttp1902
aF-1
tp1903
a(((S's9'
p1904
S's8'
p1905
S's3'
p1906
S's7'
p1907
S's6'
p1908
S's5'
p1909
S's4'
p1910
S's12'
p1911
S's11'
p1912
t(S'w16'
S'w10'
S'w2'
S'w9'
S'w7'
S'w6'
S'w4'
S'w18'
S'w14'
tt(dp1913
g1904
(dp1914
S'p_paths'
p1915
(lp1916
(g1904
S'w16'
p1917
S's12'
p1918
S'p'
tp1919
asS'edges'
p1920
(lp1921
(g1904
g1917
tp1922
a(g1904
S'w10'
p1923
tp1924
asS'n_paths'
p1925
(lp1926
(g1904
g1917
g1910
S'n'
tp1927
a(g1904
g1923
g1905
S'n'
tp1928
assg1905
(dp1929
g1915
(lp1930
sg1920
(lp1931
(g1905
S'w10'
p1932
tp1933
asg1925
(lp1934
(g1905
g1932
g1904
S'n'
tp1935
assg1906
(dp1936
g1915
(lp1937
sg1920
(lp1938
(g1906
S'w2'
tp1939
asg1925
(lp1940
ssg1911
(dp1941
g1915
(lp1942
(g1911
S'w18'
p1943
S's9'
p1944
S'p'
tp1945
asg1920
(lp1946
(g1911
g1943
tp1947
asg1925
(lp1948
ssg1912
(dp1949
g1915
(lp1950
(g1912
S'w14'
p1951
S's9'
S'p'
tp1952
a(g1912
g1951
S's6'
S'p'
tp1953
asg1920
(lp1954
(g1912
g1951
tp1955
asg1925
(lp1956
ssg1907
(dp1957
g1915
(lp1958
(g1907
S'w9'
p1959
S's8'
p1960
S'p'
tp1961
asg1920
(lp1962
(g1907
g1959
tp1963
asg1925
(lp1964
ssg1908
(dp1965
g1915
(lp1966
(g1908
S'w7'
p1967
S's7'
p1968
S'p'
tp1969
asg1920
(lp1970
(g1908
g1967
tp1971
asg1925
(lp1972
ssg1909
(dp1973
g1915
(lp1974
(g1909
S'w6'
p1975
S's6'
p1976
S'p'
tp1977
asg1920
(lp1978
(g1909
g1975
tp1979
asg1925
(lp1980
ssg1910
(dp1981
g1915
(lp1982
(g1910
S'w16'
p1983
g1918
S'p'
tp1984
a(g1910
S'w4'
p1985
S's5'
p1986
S'p'
tp1987
asg1920
(lp1988
(g1910
g1983
tp1989
a(g1910
g1985
tp1990
asg1925
(lp1991
(g1910
g1983
g1904
S'n'
tp1992
ass(lp1993
(g1922
g1933
g1939
g1947
g1955
g1963
g1971
g1979
g1990
tp1994
a(g1939
g1947
g1955
(g1905
g1923
g1904
S'n'
t(g1904
g1917
g1910
S'n'
t(g1910
g1985
g1986
S'p'
t(g1909
g1975
g1976
S'p'
t(g1908
g1967
g1968
S'p'
t(g1907
g1959
g1960
S'p'
ttp1995
a(g1933
g1939
g1955
g1963
g1971
g1979
g1990
(g1904
g1917
g1918
S'p'
t(g1911
g1943
g1944
S'p'
ttp1996
aF-1
tp1997
a(((S's9'
p1998
S's8'
p1999
S's3'
p2000
S's7'
p2001
S's6'
p2002
S's5'
p2003
S's4'
p2004
S's12'
p2005
S's11'
p2006
t(S'w13'
S'w10'
S'w3'
S'w9'
S'w7'
S'w6'
S'w16'
S'w18'
S'w15'
tt(dp2007
g1998
(dp2008
S'p_paths'
p2009
(lp2010
(g1998
S'w16'
p2011
S's12'
p2012
S'p'
tp2013
a(g1998
S'w13'
p2014
S's11'
p2015
S'p'
tp2016
asS'edges'
p2017
(lp2018
(g1998
g2011
tp2019
a(g1998
g2014
tp2020
a(g1998
S'w10'
p2021
tp2022
asS'n_paths'
p2023
(lp2024
(g1998
g2011
g2004
S'n'
tp2025
a(g1998
g2014
g2002
S'n'
tp2026
a(g1998
g2021
g1999
S'n'
tp2027
assg1999
(dp2028
g2009
(lp2029
sg2017
(lp2030
(g1999
S'w10'
p2031
tp2032
asg2023
(lp2033
(g1999
g2031
g1998
S'n'
tp2034
assg2000
(dp2035
g2009
(lp2036
(g2000
S'w3'
p2037
S's4'
S'p'
tp2038
asg2017
(lp2039
(g2000
g2037
tp2040
asg2023
(lp2041
ssg2005
(dp2042
g2009
(lp2043
(g2005
S'w18'
p2044
S's9'
p2045
S'p'
tp2046
asg2017
(lp2047
(g2005
g2044
tp2048
asg2023
(lp2049
ssg2006
(dp2050
g2009
(lp2051
(g2006
S'w15'
p2052
S's9'
p2053
S'p'
tp2054
a(g2006
g2052
S's4'
p2055
S'p'
tp2056
asg2017
(lp2057
(g2006
g2052
tp2058
asg2023
(lp2059
ssg2001
(dp2060
g2009
(lp2061
(g2001
S'w9'
p2062
S's8'
p2063
S'p'
tp2064
asg2017
(lp2065
(g2001
g2062
tp2066
asg2023
(lp2067
ssg2002
(dp2068
g2009
(lp2069
(g2002
S'w7'
p2070
S's7'
p2071
S'p'
tp2072
a(g2002
S'w13'
p2073
g2015
S'p'
tp2074
asg2017
(lp2075
(g2002
g2070
tp2076
a(g2002
g2073
tp2077
asg2023
(lp2078
(g2002
g2073
g1998
S'n'
tp2079
assg2003
(dp2080
g2009
(lp2081
(g2003
S'w6'
p2082
S's6'
S'p'
tp2083
asg2017
(lp2084
(g2003
g2082
tp2085
asg2023
(lp2086
ssg2004
(dp2087
g2009
(lp2088
(g2004
S'w16'
p2089
g2012
S'p'
tp2090
asg2017
(lp2091
(g2004
g2089
tp2092
asg2023
(lp2093
(g2004
g2089
g1998
S'n'
tp2094
ass(lp2095
(g2020
g2032
g2040
g2048
g2058
g2066
g2076
g2085
g2092
tp2096
a(g2032
g2040
g2048
g2066
g2076
g2085
g2092
(g2006
g2052
g2053
S'p'
t(g1998
g2014
g2015
S'p'
tp2097
tp2098
a(g2032
g2040
g2066
g2076
g2085
(g2005
g2044
g2045
S'p'
tg2097
(g2006
g2052
g2055
S'p'
tp2099
(g2004
g2089
g2012
S'p'
ttp2100
a(g2032
g2040
g2048
g2066
g2076
g2085
(g2004
g2011
g1998
S'n'
tg2097
g2099
tp2101
a(g2040
g2048
g2058
g2085
g2092
(g1999
g2021
g1998
S'n'
t(g1998
g2014
g2002
S'n'
t(g2002
g2070
g2071
S'p'
t(g2001
g2062
g2063
S'p'
ttp2102
aF-1
tp2103
a(((S's9'
p2104
S's8'
p2105
S's3'
p2106
S's7'
p2107
S's6'
p2108
S's5'
p2109
S's4'
p2110
S's12'
p2111
S's11'
p2112
t(S'w13'
S'w10'
S'w3'
S'w9'
S'w7'
S'w5'
S'w16'
S'w18'
S'w15'
tt(dp2113
g2104
(dp2114
S'p_paths'
p2115
(lp2116
(g2104
S'w16'
p2117
S's12'
p2118
S'p'
tp2119
a(g2104
S'w13'
p2120
S's11'
p2121
S'p'
tp2122
asS'edges'
p2123
(lp2124
(g2104
g2117
tp2125
a(g2104
g2120
tp2126
a(g2104
S'w10'
p2127
tp2128
asS'n_paths'
p2129
(lp2130
(g2104
g2117
g2110
S'n'
tp2131
a(g2104
g2120
g2108
S'n'
tp2132
a(g2104
g2127
g2105
S'n'
tp2133
assg2105
(dp2134
g2115
(lp2135
sg2123
(lp2136
(g2105
S'w10'
p2137
tp2138
asg2129
(lp2139
(g2105
g2137
g2104
S'n'
tp2140
assg2106
(dp2141
g2115
(lp2142
(g2106
S'w3'
p2143
S's4'
S'p'
tp2144
asg2123
(lp2145
(g2106
g2143
tp2146
asg2129
(lp2147
ssg2111
(dp2148
g2115
(lp2149
(g2111
S'w18'
p2150
S's9'
p2151
S'p'
tp2152
asg2123
(lp2153
(g2111
g2150
tp2154
asg2129
(lp2155
ssg2112
(dp2156
g2115
(lp2157
(g2112
S'w15'
p2158
S's9'
p2159
S'p'
tp2160
a(g2112
g2158
S's4'
p2161
S'p'
tp2162
asg2123
(lp2163
(g2112
g2158
tp2164
asg2129
(lp2165
ssg2107
(dp2166
g2115
(lp2167
(g2107
S'w9'
p2168
S's8'
p2169
S'p'
tp2170
asg2123
(lp2171
(g2107
g2168
tp2172
asg2129
(lp2173
ssg2108
(dp2174
g2115
(lp2175
(g2108
S'w7'
p2176
S's7'
p2177
S'p'
tp2178
a(g2108
S'w13'
p2179
g2121
S'p'
tp2180
asg2123
(lp2181
(g2108
g2176
tp2182
a(g2108
g2179
tp2183
asg2129
(lp2184
(g2108
g2179
g2104
S'n'
tp2185
assg2109
(dp2186
g2115
(lp2187
(g2109
S'w5'
p2188
S's4'
S'p'
tp2189
asg2123
(lp2190
(g2109
g2188
tp2191
asg2129
(lp2192
ssg2110
(dp2193
g2115
(lp2194
(g2110
S'w16'
p2195
g2118
S'p'
tp2196
asg2123
(lp2197
(g2110
g2195
tp2198
asg2129
(lp2199
(g2110
g2195
g2104
S'n'
tp2200
ass(lp2201
(g2126
g2138
g2146
g2154
g2164
g2172
g2182
g2191
g2198
tp2202
a(g2138
g2146
g2154
g2172
g2182
g2191
g2198
(g2112
g2158
g2159
S'p'
t(g2104
g2120
g2121
S'p'
tp2203
tp2204
a(g2138
g2146
g2172
g2182
g2191
(g2111
g2150
g2151
S'p'
tg2203
(g2112
g2158
g2161
S'p'
tp2205
(g2110
g2195
g2118
S'p'
ttp2206
a(g2138
g2146
g2154
g2172
g2182
g2191
(g2110
g2117
g2104
S'n'
tg2203
g2205
tp2207
a(g2146
g2154
g2164
g2191
g2198
(g2105
g2127
g2104
S'n'
t(g2104
g2120
g2108
S'n'
t(g2108
g2176
g2177
S'p'
t(g2107
g2168
g2169
S'p'
ttp2208
aF-1
tp2209
a(((S's9'
p2210
S's8'
p2211
S's3'
p2212
S's7'
p2213
S's6'
p2214
S's5'
p2215
S's4'
p2216
S's12'
p2217
S's11'
p2218
t(S'w13'
S'w10'
S'w2'
S'w9'
S'w7'
S'w6'
S'w16'
S'w18'
S'w15'
tt(dp2219
g2210
(dp2220
S'p_paths'
p2221
(lp2222
(g2210
S'w16'
p2223
S's12'
p2224
S'p'
tp2225
a(g2210
S'w13'
p2226
S's11'
p2227
S'p'
tp2228
asS'edges'
p2229
(lp2230
(g2210
g2223
tp2231
a(g2210
g2226
tp2232
a(g2210
S'w10'
p2233
tp2234
asS'n_paths'
p2235
(lp2236
(g2210
g2223
g2216
S'n'
tp2237
a(g2210
g2226
g2214
S'n'
tp2238
a(g2210
g2233
g2211
S'n'
tp2239
assg2211
(dp2240
g2221
(lp2241
sg2229
(lp2242
(g2211
S'w10'
p2243
tp2244
asg2235
(lp2245
(g2211
g2243
g2210
S'n'
tp2246
assg2212
(dp2247
g2221
(lp2248
sg2229
(lp2249
(g2212
S'w2'
tp2250
asg2235
(lp2251
ssg2217
(dp2252
g2221
(lp2253
(g2217
S'w18'
p2254
S's9'
p2255
S'p'
tp2256
asg2229
(lp2257
(g2217
g2254
tp2258
asg2235
(lp2259
ssg2218
(dp2260
g2221
(lp2261
(g2218
S'w15'
p2262
S's9'
p2263
S'p'
tp2264
a(g2218
g2262
S's4'
p2265
S'p'
tp2266
asg2229
(lp2267
(g2218
g2262
tp2268
asg2235
(lp2269
ssg2213
(dp2270
g2221
(lp2271
(g2213
S'w9'
p2272
S's8'
p2273
S'p'
tp2274
asg2229
(lp2275
(g2213
g2272
tp2276
asg2235
(lp2277
ssg2214
(dp2278
g2221
(lp2279
(g2214
S'w7'
p2280
S's7'
p2281
S'p'
tp2282
a(g2214
S'w13'
p2283
g2227
S'p'
tp2284
asg2229
(lp2285
(g2214
g2280
tp2286
a(g2214
g2283
tp2287
asg2235
(lp2288
(g2214
g2283
g2210
S'n'
tp2289
assg2215
(dp2290
g2221
(lp2291
(g2215
S'w6'
p2292
S's6'
S'p'
tp2293
asg2229
(lp2294
(g2215
g2292
tp2295
asg2235
(lp2296
ssg2216
(dp2297
g2221
(lp2298
(g2216
S'w16'
p2299
g2224
S'p'
tp2300
asg2229
(lp2301
(g2216
g2299
tp2302
asg2235
(lp2303
(g2216
g2299
g2210
S'n'
tp2304
ass(lp2305
(g2232
g2244
g2250
g2258
g2268
g2276
g2286
g2295
g2302
tp2306
a(g2244
g2250
g2258
g2276
g2286
g2295
(g2218
g2262
g2265
S'p'
tp2307
(g2216
g2223
g2210
S'n'
t(g2210
g2226
g2227
S'p'
tp2308
tp2309
a(g2244
g2250
g2276
g2286
g2295
(g2216
g2299
g2224
S'p'
t(g2217
g2254
g2255
S'p'
tg2308
g2307
tp2310
a(g2250
g2258
g2268
g2295
g2302
(g2211
g2233
g2210
S'n'
t(g2210
g2226
g2214
S'n'
t(g2214
g2280
g2281
S'p'
t(g2213
g2272
g2273
S'p'
ttp2311
a(g2244
g2250
g2258
g2276
g2286
g2295
g2302
g2308
(g2218
g2262
g2263
S'p'
ttp2312
aF-1
tp2313
a(((S's9'
p2314
S's8'
p2315
S's3'
p2316
S's7'
p2317
S's6'
p2318
S's5'
p2319
S's4'
p2320
S's12'
p2321
S's11'
p2322
t(S'w13'
S'w10'
S'w2'
S'w9'
S'w7'
S'w5'
S'w16'
S'w18'
S'w15'
tt(dp2323
g2314
(dp2324
S'p_paths'
p2325
(lp2326
(g2314
S'w16'
p2327
S's12'
p2328
S'p'
tp2329
a(g2314
S'w13'
p2330
S's11'
p2331
S'p'
tp2332
asS'edges'
p2333
(lp2334
(g2314
g2327
tp2335
a(g2314
g2330
tp2336
a(g2314
S'w10'
p2337
tp2338
asS'n_paths'
p2339
(lp2340
(g2314
g2327
g2320
S'n'
tp2341
a(g2314
g2330
g2318
S'n'
tp2342
a(g2314
g2337
g2315
S'n'
tp2343
assg2315
(dp2344
g2325
(lp2345
sg2333
(lp2346
(g2315
S'w10'
p2347
tp2348
asg2339
(lp2349
(g2315
g2347
g2314
S'n'
tp2350
assg2316
(dp2351
g2325
(lp2352
sg2333
(lp2353
(g2316
S'w2'
tp2354
asg2339
(lp2355
ssg2321
(dp2356
g2325
(lp2357
(g2321
S'w18'
p2358
S's9'
p2359
S'p'
tp2360
asg2333
(lp2361
(g2321
g2358
tp2362
asg2339
(lp2363
ssg2322
(dp2364
g2325
(lp2365
(g2322
S'w15'
p2366
S's9'
p2367
S'p'
tp2368
a(g2322
g2366
S's4'
p2369
S'p'
tp2370
asg2333
(lp2371
(g2322
g2366
tp2372
asg2339
(lp2373
ssg2317
(dp2374
g2325
(lp2375
(g2317
S'w9'
p2376
S's8'
p2377
S'p'
tp2378
asg2333
(lp2379
(g2317
g2376
tp2380
asg2339
(lp2381
ssg2318
(dp2382
g2325
(lp2383
(g2318
S'w7'
p2384
S's7'
p2385
S'p'
tp2386
a(g2318
S'w13'
p2387
g2331
S'p'
tp2388
asg2333
(lp2389
(g2318
g2384
tp2390
a(g2318
g2387
tp2391
asg2339
(lp2392
(g2318
g2387
g2314
S'n'
tp2393
assg2319
(dp2394
g2325
(lp2395
(g2319
S'w5'
p2396
S's4'
S'p'
tp2397
asg2333
(lp2398
(g2319
g2396
tp2399
asg2339
(lp2400
ssg2320
(dp2401
g2325
(lp2402
(g2320
S'w16'
p2403
g2328
S'p'
tp2404
asg2333
(lp2405
(g2320
g2403
tp2406
asg2339
(lp2407
(g2320
g2403
g2314
S'n'
tp2408
ass(lp2409
(g2336
g2348
g2354
g2362
g2372
g2380
g2390
g2399
g2406
tp2410
a(g2348
g2354
g2362
g2380
g2390
g2399
(g2322
g2366
g2369
S'p'
tp2411
(g2320
g2327
g2314
S'n'
t(g2314
g2330
g2331
S'p'
tp2412
tp2413
a(g2348
g2354
g2362
g2380
g2390
g2399
g2406
(g2322
g2366
g2367
S'p'
tg2412
tp2414
a(g2348
g2354
g2380
g2390
g2399
(g2321
g2358
g2359
S'p'
tg2412
g2411
(g2320
g2403
g2328
S'p'
ttp2415
a(g2354
g2362
g2372
g2399
g2406
(g2315
g2337
g2314
S'n'
t(g2314
g2330
g2318
S'n'
t(g2318
g2384
g2385
S'p'
t(g2317
g2376
g2377
S'p'
ttp2416
aF-1
tp2417
a(((S's9'
p2418
S's8'
p2419
S's2'
p2420
S's1'
p2421
S's10'
p2422
S's7'
p2423
S's6'
p2424
S's5'
p2425
S's12'
p2426
t(S'w16'
S'w10'
S'w4'
S'w1'
S'w12'
S'w9'
S'w13'
S'w6'
S'w18'
tt(dp2427
g2418
(dp2428
S'p_paths'
p2429
(lp2430
(g2418
S'w16'
p2431
S's12'
p2432
S'p'
tp2433
a(g2418
S'w10'
p2434
S's10'
p2435
S'p'
tp2436
asS'edges'
p2437
(lp2438
(g2418
g2431
tp2439
a(g2418
S'w13'
p2440
tp2441
a(g2418
g2434
tp2442
asS'n_paths'
p2443
(lp2444
(g2418
g2440
g2424
S'n'
tp2445
a(g2418
g2434
g2419
S'n'
tp2446
assg2419
(dp2447
g2429
(lp2448
(g2419
S'w10'
p2449
g2435
S'p'
tp2450
asg2437
(lp2451
(g2419
g2449
tp2452
asg2443
(lp2453
(g2419
g2449
g2418
S'n'
tp2454
assg2420
(dp2455
g2429
(lp2456
(g2420
S'w4'
p2457
S's5'
p2458
S'p'
tp2459
asg2437
(lp2460
(g2420
g2457
tp2461
a(g2420
S'w1'
p2462
tp2463
asg2443
(lp2464
(g2420
g2462
g2421
S'n'
tp2465
assg2421
(dp2466
g2429
(lp2467
sg2437
(lp2468
(g2421
S'w1'
p2469
tp2470
asg2443
(lp2471
(g2421
g2469
g2420
S'n'
tp2472
assg2422
(dp2473
g2429
(lp2474
(g2422
S'w12'
p2475
S's9'
S'p'
tp2476
a(g2422
g2475
S's6'
S'p'
tp2477
asg2437
(lp2478
(g2422
g2475
tp2479
asg2443
(lp2480
ssg2423
(dp2481
g2429
(lp2482
(g2423
S'w9'
p2483
S's2'
S'p'
tp2484
a(g2423
g2483
S's8'
S'p'
tp2485
asg2437
(lp2486
(g2423
g2483
tp2487
asg2443
(lp2488
ssg2424
(dp2489
g2429
(lp2490
sg2437
(lp2491
(g2424
S'w13'
p2492
tp2493
asg2443
(lp2494
(g2424
g2492
g2418
S'n'
tp2495
assg2425
(dp2496
g2429
(lp2497
(g2425
S'w6'
p2498
S's2'
p2499
S'p'
tp2500
a(g2425
g2498
S's6'
p2501
S'p'
tp2502
asg2437
(lp2503
(g2425
g2498
tp2504
asg2443
(lp2505
ssg2426
(dp2506
g2429
(lp2507
(g2426
S'w18'
p2508
S's1'
p2509
S'p'
tp2510
a(g2426
g2508
S's9'
p2511
S'p'
tp2512
asg2437
(lp2513
(g2426
g2508
tp2514
asg2443
(lp2515
ss(lp2516
(g2439
g2452
g2461
g2470
g2479
g2487
g2493
g2504
g2514
tp2517
a(g2452
g2479
g2487
(g2421
g2462
g2420
S'n'
t(g2420
g2457
g2458
S'p'
tp2518
(g2425
g2498
g2501
S'p'
t(g2424
g2440
g2418
S'n'
t(g2418
g2431
g2432
S'p'
tp2519
(g2426
g2508
g2509
S'p'
ttp2520
a(g2452
g2461
g2470
g2479
g2487
g2493
g2504
(g2426
g2508
g2511
S'p'
tp2521
g2519
tp2522
a(g2439
g2452
g2470
g2479
g2487
g2493
g2514
g2518
(g2425
g2498
g2499
S'p'
tp2523
tp2524
a(g2452
g2470
g2479
g2487
g2493
g2521
g2519
g2518
g2523
tp2525
aF-1
tp2526
a(((S's9'
p2527
S's8'
p2528
S's2'
p2529
S's1'
p2530
S's10'
p2531
S's7'
p2532
S's6'
p2533
S's5'
p2534
S's12'
p2535
t(S'w16'
S'w10'
S'w4'
S'w1'
S'w12'
S'w8'
S'w13'
S'w6'
S'w18'
tt(dp2536
g2527
(dp2537
S'p_paths'
p2538
(lp2539
(g2527
S'w16'
p2540
S's12'
p2541
S'p'
tp2542
a(g2527
S'w10'
p2543
S's10'
p2544
S'p'
tp2545
asS'edges'
p2546
(lp2547
(g2527
g2540
tp2548
a(g2527
S'w13'
p2549
tp2550
a(g2527
g2543
tp2551
asS'n_paths'
p2552
(lp2553
(g2527
g2549
g2533
S'n'
tp2554
a(g2527
g2543
g2528
S'n'
tp2555
assg2528
(dp2556
g2538
(lp2557
(g2528
S'w10'
p2558
g2544
S'p'
tp2559
asg2546
(lp2560
(g2528
g2558
tp2561
asg2552
(lp2562
(g2528
g2558
g2527
S'n'
tp2563
assg2529
(dp2564
g2538
(lp2565
(g2529
S'w4'
p2566
S's5'
p2567
S'p'
tp2568
asg2546
(lp2569
(g2529
g2566
tp2570
a(g2529
S'w1'
p2571
tp2572
asg2552
(lp2573
(g2529
g2571
g2530
S'n'
tp2574
assg2530
(dp2575
g2538
(lp2576
sg2546
(lp2577
(g2530
S'w1'
p2578
tp2579
asg2552
(lp2580
(g2530
g2578
g2529
S'n'
tp2581
assg2531
(dp2582
g2538
(lp2583
(g2531
S'w12'
p2584
S's9'
S'p'
tp2585
a(g2531
g2584
S's6'
S'p'
tp2586
asg2546
(lp2587
(g2531
g2584
tp2588
asg2552
(lp2589
ssg2532
(dp2590
g2538
(lp2591
(g2532
S'w8'
p2592
S's2'
S'p'
tp2593
a(g2532
g2592
S's6'
S'p'
tp2594
asg2546
(lp2595
(g2532
g2592
tp2596
asg2552
(lp2597
ssg2533
(dp2598
g2538
(lp2599
sg2546
(lp2600
(g2533
S'w13'
p2601
tp2602
asg2552
(lp2603
(g2533
g2601
g2527
S'n'
tp2604
assg2534
(dp2605
g2538
(lp2606
(g2534
S'w6'
p2607
S's2'
p2608
S'p'
tp2609
a(g2534
g2607
S's6'
p2610
S'p'
tp2611
asg2546
(lp2612
(g2534
g2607
tp2613
asg2552
(lp2614
ssg2535
(dp2615
g2538
(lp2616
(g2535
S'w18'
p2617
S's1'
p2618
S'p'
tp2619
a(g2535
g2617
S's9'
p2620
S'p'
tp2621
asg2546
(lp2622
(g2535
g2617
tp2623
asg2552
(lp2624
ss(lp2625
(g2548
g2561
g2570
g2579
g2588
g2596
g2602
g2613
g2623
tp2626
a(g2561
g2588
g2596
(g2530
g2571
g2529
S'n'
t(g2529
g2566
g2567
S'p'
tp2627
(g2534
g2607
g2610
S'p'
t(g2533
g2549
g2527
S'n'
t(g2527
g2540
g2541
S'p'
tp2628
(g2535
g2617
g2618
S'p'
ttp2629
a(g2561
g2570
g2579
g2588
g2596
g2602
g2613
(g2535
g2617
g2620
S'p'
tp2630
g2628
tp2631
a(g2548
g2561
g2579
g2588
g2596
g2602
g2623
g2627
(g2534
g2607
g2608
S'p'
tp2632
tp2633
a(g2561
g2579
g2588
g2596
g2602
g2630
g2628
g2627
g2632
tp2634
aF-1
tp2635
a(((S's9'
p2636
S's8'
p2637
S's2'
p2638
S's1'
p2639
S's10'
p2640
S's7'
p2641
S's5'
p2642
S's4'
p2643
S's12'
p2644
t(S'w13'
S'w10'
S'w4'
S'w1'
S'w12'
S'w9'
S'w6'
S'w16'
S'w18'
tt(dp2645
g2636
(dp2646
S'p_paths'
p2647
(lp2648
(g2636
S'w16'
p2649
S's12'
p2650
S'p'
tp2651
a(g2636
S'w10'
p2652
S's10'
p2653
S'p'
tp2654
asS'edges'
p2655
(lp2656
(g2636
g2649
tp2657
a(g2636
S'w13'
tp2658
a(g2636
g2652
tp2659
asS'n_paths'
p2660
(lp2661
(g2636
g2649
g2643
S'n'
tp2662
a(g2636
g2652
g2637
S'n'
tp2663
assg2637
(dp2664
g2647
(lp2665
(g2637
S'w10'
p2666
g2653
S'p'
tp2667
asg2655
(lp2668
(g2637
g2666
tp2669
asg2660
(lp2670
(g2637
g2666
g2636
S'n'
tp2671
assg2638
(dp2672
g2647
(lp2673
(g2638
S'w4'
p2674
S's5'
p2675
S'p'
tp2676
asg2655
(lp2677
(g2638
g2674
tp2678
a(g2638
S'w1'
p2679
tp2680
asg2660
(lp2681
(g2638
g2674
g2643
S'n'
tp2682
a(g2638
g2679
g2639
S'n'
tp2683
assg2639
(dp2684
g2647
(lp2685
sg2655
(lp2686
(g2639
S'w1'
p2687
tp2688
asg2660
(lp2689
(g2639
g2687
g2638
S'n'
tp2690
assg2640
(dp2691
g2647
(lp2692
(g2640
S'w12'
p2693
S's9'
S'p'
tp2694
asg2655
(lp2695
(g2640
g2693
tp2696
asg2660
(lp2697
ssg2641
(dp2698
g2647
(lp2699
(g2641
S'w9'
p2700
S's2'
S'p'
tp2701
a(g2641
g2700
S's8'
S'p'
tp2702
asg2655
(lp2703
(g2641
g2700
tp2704
asg2660
(lp2705
ssg2642
(dp2706
g2647
(lp2707
(g2642
S'w6'
p2708
S's2'
p2709
S'p'
tp2710
asg2655
(lp2711
(g2642
g2708
tp2712
asg2660
(lp2713
ssg2643
(dp2714
g2647
(lp2715
(g2643
S'w16'
p2716
g2650
S'p'
tp2717
a(g2643
S'w4'
p2718
g2675
S'p'
tp2719
asg2655
(lp2720
(g2643
g2716
tp2721
a(g2643
g2718
tp2722
asg2660
(lp2723
(g2643
g2716
g2636
S'n'
tp2724
a(g2643
g2718
g2638
S'n'
tp2725
assg2644
(dp2726
g2647
(lp2727
(g2644
S'w18'
p2728
S's1'
p2729
S'p'
tp2730
a(g2644
g2728
S's9'
S'p'
tp2731
asg2655
(lp2732
(g2644
g2728
tp2733
asg2660
(lp2734
ss(lp2735
(g2658
g2669
g2678
g2688
g2696
g2704
g2712
g2721
g2733
tp2736
a(g2658
g2669
g2696
g2704
g2712
(g2639
g2679
g2638
S'n'
t(g2638
g2674
g2643
S'n'
t(g2643
g2716
g2650
S'p'
t(g2644
g2728
g2729
S'p'
ttp2737
a(g2658
g2669
g2688
g2696
g2704
g2721
g2733
(g2642
g2708
g2709
S'p'
t(g2638
g2674
g2675
S'p'
ttp2738
aF-1
tp2739
a(((S's9'
p2740
S's8'
p2741
S's2'
p2742
S's1'
p2743
S's10'
p2744
S's7'
p2745
S's5'
p2746
S's4'
p2747
S's12'
p2748
t(S'w13'
S'w10'
S'w4'
S'w1'
S'w12'
S'w8'
S'w6'
S'w16'
S'w18'
tt(dp2749
g2740
(dp2750
S'p_paths'
p2751
(lp2752
(g2740
S'w16'
p2753
S's12'
p2754
S'p'
tp2755
a(g2740
S'w10'
p2756
S's10'
p2757
S'p'
tp2758
asS'edges'
p2759
(lp2760
(g2740
g2753
tp2761
a(g2740
S'w13'
tp2762
a(g2740
g2756
tp2763
asS'n_paths'
p2764
(lp2765
(g2740
g2753
g2747
S'n'
tp2766
a(g2740
g2756
g2741
S'n'
tp2767
assg2741
(dp2768
g2751
(lp2769
(g2741
S'w10'
p2770
g2757
S'p'
tp2771
asg2759
(lp2772
(g2741
g2770
tp2773
asg2764
(lp2774
(g2741
g2770
g2740
S'n'
tp2775
assg2742
(dp2776
g2751
(lp2777
(g2742
S'w4'
p2778
S's5'
p2779
S'p'
tp2780
asg2759
(lp2781
(g2742
g2778
tp2782
a(g2742
S'w1'
p2783
tp2784
asg2764
(lp2785
(g2742
g2778
g2747
S'n'
tp2786
a(g2742
g2783
g2743
S'n'
tp2787
assg2743
(dp2788
g2751
(lp2789
sg2759
(lp2790
(g2743
S'w1'
p2791
tp2792
asg2764
(lp2793
(g2743
g2791
g2742
S'n'
tp2794
assg2744
(dp2795
g2751
(lp2796
(g2744
S'w12'
p2797
S's9'
S'p'
tp2798
asg2759
(lp2799
(g2744
g2797
tp2800
asg2764
(lp2801
ssg2745
(dp2802
g2751
(lp2803
(g2745
S'w8'
p2804
S's2'
S'p'
tp2805
asg2759
(lp2806
(g2745
g2804
tp2807
asg2764
(lp2808
ssg2746
(dp2809
g2751
(lp2810
(g2746
S'w6'
p2811
S's2'
p2812
S'p'
tp2813
asg2759
(lp2814
(g2746
g2811
tp2815
asg2764
(lp2816
ssg2747
(dp2817
g2751
(lp2818
(g2747
S'w16'
p2819
g2754
S'p'
tp2820
a(g2747
S'w4'
p2821
g2779
S'p'
tp2822
asg2759
(lp2823
(g2747
g2819
tp2824
a(g2747
g2821
tp2825
asg2764
(lp2826
(g2747
g2819
g2740
S'n'
tp2827
a(g2747
g2821
g2742
S'n'
tp2828
assg2748
(dp2829
g2751
(lp2830
(g2748
S'w18'
p2831
S's1'
p2832
S'p'
tp2833
a(g2748
g2831
S's9'
S'p'
tp2834
asg2759
(lp2835
(g2748
g2831
tp2836
asg2764
(lp2837
ss(lp2838
(g2762
g2773
g2782
g2792
g2800
g2807
g2815
g2824
g2836
tp2839
a(g2762
g2773
g2800
g2807
g2815
(g2743
g2783
g2742
S'n'
t(g2742
g2778
g2747
S'n'
t(g2747
g2819
g2754
S'p'
t(g2748
g2831
g2832
S'p'
ttp2840
a(g2762
g2773
g2792
g2800
g2807
g2824
g2836
(g2746
g2811
g2812
S'p'
t(g2742
g2778
g2779
S'p'
ttp2841
aF-1
tp2842
a(((S's9'
p2843
S's8'
p2844
S's2'
p2845
S's1'
p2846
S's7'
p2847
S's6'
p2848
S's5'
p2849
S's12'
p2850
S's11'
p2851
t(S'w16'
S'w10'
S'w7'
S'w1'
S'w9'
S'w13'
S'w6'
S'w18'
S'w15'
tt(dp2852
g2843
(dp2853
S'p_paths'
p2854
(lp2855
(g2843
S'w16'
p2856
S's12'
p2857
S'p'
tp2858
a(g2843
S'w13'
p2859
S's11'
p2860
S'p'
tp2861
asS'edges'
p2862
(lp2863
(g2843
g2856
tp2864
a(g2843
g2859
tp2865
a(g2843
S'w10'
p2866
tp2867
asS'n_paths'
p2868
(lp2869
(g2843
g2859
g2848
S'n'
tp2870
a(g2843
g2866
g2844
S'n'
tp2871
assg2844
(dp2872
g2854
(lp2873
sg2862
(lp2874
(g2844
S'w10'
p2875
tp2876
asg2868
(lp2877
(g2844
g2875
g2843
S'n'
tp2878
assg2845
(dp2879
g2854
(lp2880
(g2845
S'w7'
p2881
S's7'
p2882
S'p'
tp2883
asg2862
(lp2884
(g2845
g2881
tp2885
a(g2845
S'w1'
p2886
tp2887
asg2868
(lp2888
(g2845
g2881
g2848
S'n'
tp2889
a(g2845
g2886
g2846
S'n'
tp2890
assg2846
(dp2891
g2854
(lp2892
sg2862
(lp2893
(g2846
S'w1'
p2894
tp2895
asg2868
(lp2896
(g2846
g2894
g2845
S'n'
tp2897
assg2847
(dp2898
g2854
(lp2899
(g2847
S'w9'
p2900
S's2'
p2901
S'p'
tp2902
a(g2847
g2900
S's8'
p2903
S'p'
tp2904
asg2862
(lp2905
(g2847
g2900
tp2906
asg2868
(lp2907
ssg2848
(dp2908
g2854
(lp2909
(g2848
S'w7'
p2910
g2882
S'p'
tp2911
a(g2848
S'w13'
p2912
g2860
S'p'
tp2913
asg2862
(lp2914
(g2848
g2910
tp2915
a(g2848
g2912
tp2916
asg2868
(lp2917
(g2848
g2910
g2845
S'n'
tp2918
a(g2848
g2912
g2843
S'n'
tp2919
assg2849
(dp2920
g2854
(lp2921
(g2849
S'w6'
p2922
S's2'
S'p'
tp2923
a(g2849
g2922
S's6'
S'p'
tp2924
asg2862
(lp2925
(g2849
g2922
tp2926
asg2868
(lp2927
ssg2850
(dp2928
g2854
(lp2929
(g2850
S'w18'
p2930
S's1'
p2931
S'p'
tp2932
a(g2850
g2930
S's9'
p2933
S'p'
tp2934
asg2862
(lp2935
(g2850
g2930
tp2936
asg2868
(lp2937
ssg2851
(dp2938
g2854
(lp2939
(g2851
S'w15'
p2940
S's9'
p2941
S'p'
tp2942
asg2862
(lp2943
(g2851
g2940
tp2944
asg2868
(lp2945
ss(lp2946
(g2864
g2876
g2885
g2895
g2906
g2916
g2926
g2936
g2944
tp2947
a(g2876
g2906
g2926
(g2846
g2886
g2845
S'n'
tp2948
(g2845
g2881
g2848
S'n'
tp2949
(g2848
g2912
g2860
S'p'
t(g2851
g2940
g2941
S'p'
t(g2843
g2856
g2857
S'p'
tp2950
(g2850
g2930
g2931
S'p'
tp2951
tp2952
a(g2876
g2906
g2926
g2944
g2948
g2949
(g2848
g2859
g2843
S'n'
tg2950
g2951
tp2953
a(g2876
g2885
g2895
g2906
g2916
g2926
g2944
(g2850
g2930
g2933
S'p'
tp2954
g2950
tp2955
a(g2864
g2876
g2895
g2916
g2926
g2936
g2944
(g2845
g2881
g2882
S'p'
tp2956
(g2847
g2900
g2901
S'p'
tp2957
tp2958
a(g2916
g2926
g2944
(g2844
g2866
g2843
S'n'
tg2950
g2951
g2948
g2956
(g2847
g2900
g2903
S'p'
ttp2959
a(g2876
g2895
g2916
g2926
g2944
g2954
g2950
g2956
g2957
tp2960
aF-1
tp2961
a(((S's9'
p2962
S's8'
p2963
S's2'
p2964
S's1'
p2965
S's7'
p2966
S's6'
p2967
S's5'
p2968
S's12'
p2969
S's11'
p2970
t(S'w16'
S'w10'
S'w7'
S'w1'
S'w9'
S'w13'
S'w5'
S'w18'
S'w15'
tt(dp2971
g2962
(dp2972
S'p_paths'
p2973
(lp2974
(g2962
S'w16'
p2975
S's12'
p2976
S'p'
tp2977
a(g2962
S'w13'
p2978
S's11'
p2979
S'p'
tp2980
asS'edges'
p2981
(lp2982
(g2962
g2975
tp2983
a(g2962
g2978
tp2984
a(g2962
S'w10'
p2985
tp2986
asS'n_paths'
p2987
(lp2988
(g2962
g2978
g2967
S'n'
tp2989
a(g2962
g2985
g2963
S'n'
tp2990
assg2963
(dp2991
g2973
(lp2992
sg2981
(lp2993
(g2963
S'w10'
p2994
tp2995
asg2987
(lp2996
(g2963
g2994
g2962
S'n'
tp2997
assg2964
(dp2998
g2973
(lp2999
(g2964
S'w7'
p3000
S's7'
p3001
S'p'
tp3002
asg2981
(lp3003
(g2964
g3000
tp3004
a(g2964
S'w1'
p3005
tp3006
asg2987
(lp3007
(g2964
g3000
g2967
S'n'
tp3008
a(g2964
g3005
g2965
S'n'
tp3009
assg2965
(dp3010
g2973
(lp3011
sg2981
(lp3012
(g2965
S'w1'
p3013
tp3014
asg2987
(lp3015
(g2965
g3013
g2964
S'n'
tp3016
assg2966
(dp3017
g2973
(lp3018
(g2966
S'w9'
p3019
S's2'
p3020
S'p'
tp3021
a(g2966
g3019
S's8'
p3022
S'p'
tp3023
asg2981
(lp3024
(g2966
g3019
tp3025
asg2987
(lp3026
ssg2967
(dp3027
g2973
(lp3028
(g2967
S'w7'
p3029
g3001
S'p'
tp3030
a(g2967
S'w13'
p3031
g2979
S'p'
tp3032
asg2981
(lp3033
(g2967
g3029
tp3034
a(g2967
g3031
tp3035
asg2987
(lp3036
(g2967
g3029
g2964
S'n'
tp3037
a(g2967
g3031
g2962
S'n'
tp3038
assg2968
(dp3039
g2973
(lp3040
(g2968
S'w5'
p3041
S's2'
S'p'
tp3042
asg2981
(lp3043
(g2968
g3041
tp3044
asg2987
(lp3045
ssg2969
(dp3046
g2973
(lp3047
(g2969
S'w18'
p3048
S's1'
p3049
S'p'
tp3050
a(g2969
g3048
S's9'
p3051
S'p'
tp3052
asg2981
(lp3053
(g2969
g3048
tp3054
asg2987
(lp3055
ssg2970
(dp3056
g2973
(lp3057
(g2970
S'w15'
p3058
S's9'
p3059
S'p'
tp3060
asg2981
(lp3061
(g2970
g3058
tp3062
asg2987
(lp3063
ss(lp3064
(g2983
g2995
g3004
g3014
g3025
g3035
g3044
g3054
g3062
tp3065
a(g2995
g3025
g3044
(g2965
g3005
g2964
S'n'
tp3066
(g2964
g3000
g2967
S'n'
tp3067
(g2967
g3031
g2979
S'p'
t(g2970
g3058
g3059
S'p'
t(g2962
g2975
g2976
S'p'
tp3068
(g2969
g3048
g3049
S'p'
tp3069
tp3070
a(g2995
g3025
g3044
g3062
g3066
g3067
(g2967
g2978
g2962
S'n'
tg3068
g3069
tp3071
a(g2995
g3004
g3014
g3025
g3035
g3044
g3062
(g2969
g3048
g3051
S'p'
tp3072
g3068
tp3073
a(g2983
g2995
g3014
g3035
g3044
g3054
g3062
(g2964
g3000
g3001
S'p'
tp3074
(g2966
g3019
g3020
S'p'
tp3075
tp3076
a(g3035
g3044
g3062
(g2963
g2985
g2962
S'n'
tg3068
g3069
g3066
g3074
(g2966
g3019
g3022
S'p'
ttp3077
a(g2995
g3014
g3035
g3044
g3062
g3072
g3068
g3074
g3075
tp3078
aF-1
tp3079
a(((S's9'
p3080
S's8'
p3081
S's2'
p3082
S's1'
p3083
S's7'
p3084
S's6'
p3085
S's5'
p3086
S's12'
p3087
S's11'
p3088
t(S'w16'
S'w10'
S'w4'
S'w1'
S'w9'
S'w7'
S'w6'
S'w18'
S'w15'
tt(dp3089
g3080
(dp3090
S'p_paths'
p3091
(lp3092
(g3080
S'w16'
p3093
S's12'
p3094
S'p'
tp3095
asS'edges'
p3096
(lp3097
(g3080
g3093
tp3098
a(g3080
S'w10'
p3099
tp3100
asS'n_paths'
p3101
(lp3102
(g3080
g3099
g3081
S'n'
tp3103
assg3081
(dp3104
g3091
(lp3105
sg3096
(lp3106
(g3081
S'w10'
p3107
tp3108
asg3101
(lp3109
(g3081
g3107
g3080
S'n'
tp3110
assg3082
(dp3111
g3091
(lp3112
(g3082
S'w7'
p3113
S's7'
p3114
S'p'
tp3115
a(g3082
S'w4'
p3116
S's5'
p3117
S'p'
tp3118
asg3096
(lp3119
(g3082
g3113
tp3120
a(g3082
g3116
tp3121
a(g3082
S'w1'
p3122
tp3123
asg3101
(lp3124
(g3082
g3113
g3085
S'n'
tp3125
a(g3082
g3122
g3083
S'n'
tp3126
assg3083
(dp3127
g3091
(lp3128
sg3096
(lp3129
(g3083
S'w1'
p3130
tp3131
asg3101
(lp3132
(g3083
g3130
g3082
S'n'
tp3133
assg3084
(dp3134
g3091
(lp3135
(g3084
S'w9'
p3136
S's2'
p3137
S'p'
tp3138
a(g3084
g3136
S's8'
p3139
S'p'
tp3140
asg3096
(lp3141
(g3084
g3136
tp3142
asg3101
(lp3143
ssg3085
(dp3144
g3091
(lp3145
(g3085
S'w7'
p3146
g3114
S'p'
tp3147
asg3096
(lp3148
(g3085
g3146
tp3149
asg3101
(lp3150
(g3085
g3146
g3082
S'n'
tp3151
assg3086
(dp3152
g3091
(lp3153
(g3086
S'w6'
p3154
S's2'
p3155
S'p'
tp3156
a(g3086
g3154
S's6'
p3157
S'p'
tp3158
asg3096
(lp3159
(g3086
g3154
tp3160
asg3101
(lp3161
ssg3087
(dp3162
g3091
(lp3163
(g3087
S'w18'
p3164
S's1'
p3165
S'p'
tp3166
a(g3087
g3164
S's9'
p3167
S'p'
tp3168
asg3096
(lp3169
(g3087
g3164
tp3170
asg3101
(lp3171
ssg3088
(dp3172
g3091
(lp3173
(g3088
S'w15'
p3174
S's9'
S'p'
tp3175
asg3096
(lp3176
(g3088
g3174
tp3177
asg3101
(lp3178
ss(lp3179
(g3098
g3108
g3121
g3131
g3142
g3149
g3160
g3170
g3177
tp3180
a(g3098
g3108
g3131
g3142
g3149
g3170
g3177
(g3086
g3154
g3155
S'p'
tp3181
(g3082
g3116
g3117
S'p'
tp3182
tp3183
a(g3098
g3108
g3131
g3142
g3170
g3177
(g3085
g3113
g3082
S'n'
tp3184
g3182
(g3086
g3154
g3157
S'p'
tp3185
tp3186
a(g3098
g3108
g3131
g3170
g3177
(g3085
g3146
g3114
S'p'
tp3187
(g3084
g3136
g3137
S'p'
tp3188
g3182
g3185
tp3189
a(g3177
(g3081
g3099
g3080
S'n'
t(g3080
g3093
g3094
S'p'
tp3190
(g3087
g3164
g3165
S'p'
t(g3083
g3122
g3082
S'n'
tg3182
g3185
g3187
(g3084
g3136
g3139
S'p'
ttp3191
a(g3108
g3121
g3131
g3142
g3149
g3160
g3177
g3190
(g3087
g3164
g3167
S'p'
tp3192
tp3193
a(g3108
g3131
g3142
g3149
g3177
g3181
g3182
g3190
g3192
tp3194
a(g3108
g3131
g3142
g3177
g3184
g3182
g3185
g3190
g3192
tp3195
a(g3108
g3131
g3177
g3187
g3188
g3182
g3185
g3190
g3192
tp3196
aF-1
tp3197
a(((S's9'
p3198
S's8'
p3199
S's2'
p3200
S's1'
p3201
S's7'
p3202
S's6'
p3203
S's5'
p3204
S's12'
p3205
S's11'
p3206
t(S'w16'
S'w10'
S'w4'
S'w1'
S'w9'
S'w7'
S'w6'
S'w18'
S'w14'
tt(dp3207
g3198
(dp3208
S'p_paths'
p3209
(lp3210
(g3198
S'w16'
p3211
S's12'
p3212
S'p'
tp3213
asS'edges'
p3214
(lp3215
(g3198
g3211
tp3216
a(g3198
S'w10'
p3217
tp3218
asS'n_paths'
p3219
(lp3220
(g3198
g3217
g3199
S'n'
tp3221
assg3199
(dp3222
g3209
(lp3223
sg3214
(lp3224
(g3199
S'w10'
p3225
tp3226
asg3219
(lp3227
(g3199
g3225
g3198
S'n'
tp3228
assg3200
(dp3229
g3209
(lp3230
(g3200
S'w7'
p3231
S's7'
p3232
S'p'
tp3233
a(g3200
S'w4'
p3234
S's5'
p3235
S'p'
tp3236
asg3214
(lp3237
(g3200
g3231
tp3238
a(g3200
g3234
tp3239
a(g3200
S'w1'
p3240
tp3241
asg3219
(lp3242
(g3200
g3231
g3203
S'n'
tp3243
a(g3200
g3240
g3201
S'n'
tp3244
assg3201
(dp3245
g3209
(lp3246
sg3214
(lp3247
(g3201
S'w1'
p3248
tp3249
asg3219
(lp3250
(g3201
g3248
g3200
S'n'
tp3251
assg3202
(dp3252
g3209
(lp3253
(g3202
S'w9'
p3254
S's2'
p3255
S'p'
tp3256
a(g3202
g3254
S's8'
p3257
S'p'
tp3258
asg3214
(lp3259
(g3202
g3254
tp3260
asg3219
(lp3261
ssg3203
(dp3262
g3209
(lp3263
(g3203
S'w7'
p3264
g3232
S'p'
tp3265
asg3214
(lp3266
(g3203
g3264
tp3267
asg3219
(lp3268
(g3203
g3264
g3200
S'n'
tp3269
assg3204
(dp3270
g3209
(lp3271
(g3204
S'w6'
p3272
S's2'
p3273
S'p'
tp3274
a(g3204
g3272
S's6'
p3275
S'p'
tp3276
asg3214
(lp3277
(g3204
g3272
tp3278
asg3219
(lp3279
ssg3205
(dp3280
g3209
(lp3281
(g3205
S'w18'
p3282
S's1'
p3283
S'p'
tp3284
a(g3205
g3282
S's9'
p3285
S'p'
tp3286
asg3214
(lp3287
(g3205
g3282
tp3288
asg3219
(lp3289
ssg3206
(dp3290
g3209
(lp3291
(g3206
S'w14'
p3292
S's9'
S'p'
tp3293
a(g3206
g3292
S's6'
S'p'
tp3294
asg3214
(lp3295
(g3206
g3292
tp3296
asg3219
(lp3297
ss(lp3298
(g3216
g3226
g3239
g3249
g3260
g3267
g3278
g3288
g3296
tp3299
a(g3216
g3226
g3249
g3260
g3267
g3288
g3296
(g3204
g3272
g3273
S'p'
tp3300
(g3200
g3234
g3235
S'p'
tp3301
tp3302
a(g3216
g3226
g3249
g3260
g3288
g3296
(g3203
g3231
g3200
S'n'
tp3303
g3301
(g3204
g3272
g3275
S'p'
tp3304
tp3305
a(g3216
g3226
g3249
g3288
g3296
(g3203
g3264
g3232
S'p'
tp3306
(g3202
g3254
g3255
S'p'
tp3307
g3301
g3304
tp3308
a(g3296
(g3199
g3217
g3198
S'n'
t(g3198
g3211
g3212
S'p'
tp3309
(g3205
g3282
g3283
S'p'
t(g3201
g3240
g3200
S'n'
tg3301
g3304
g3306
(g3202
g3254
g3257
S'p'
ttp3310
a(g3226
g3239
g3249
g3260
g3267
g3278
g3296
g3309
(g3205
g3282
g3285
S'p'
tp3311
tp3312
a(g3226
g3249
g3260
g3267
g3296
g3300
g3301
g3309
g3311
tp3313
a(g3226
g3249
g3260
g3296
g3303
g3301
g3304
g3309
g3311
tp3314
a(g3226
g3249
g3296
g3306
g3307
g3301
g3304
g3309
g3311
tp3315
aF-1
tp3316
a(((S's9'
p3317
S's8'
p3318
S's2'
p3319
S's1'
p3320
S's7'
p3321
S's5'
p3322
S's4'
p3323
S's12'
p3324
S's11'
p3325
t(S'w16'
S'w10'
S'w7'
S'w1'
S'w9'
S'w6'
S'w4'
S'w18'
S'w14'
tt(dp3326
g3317
(dp3327
S'p_paths'
p3328
(lp3329
(g3317
S'w16'
p3330
S's12'
p3331
S'p'
tp3332
asS'edges'
p3333
(lp3334
(g3317
g3330
tp3335
a(g3317
S'w10'
p3336
tp3337
asS'n_paths'
p3338
(lp3339
(g3317
g3330
g3323
S'n'
tp3340
a(g3317
g3336
g3318
S'n'
tp3341
assg3318
(dp3342
g3328
(lp3343
sg3333
(lp3344
(g3318
S'w10'
p3345
tp3346
asg3338
(lp3347
(g3318
g3345
g3317
S'n'
tp3348
assg3319
(dp3349
g3328
(lp3350
(g3319
S'w7'
p3351
S's7'
p3352
S'p'
tp3353
a(g3319
S'w4'
p3354
S's5'
p3355
S'p'
tp3356
asg3333
(lp3357
(g3319
g3351
tp3358
a(g3319
g3354
tp3359
a(g3319
S'w1'
p3360
tp3361
asg3338
(lp3362
(g3319
g3354
g3323
S'n'
tp3363
a(g3319
g3360
g3320
S'n'
tp3364
assg3320
(dp3365
g3328
(lp3366
sg3333
(lp3367
(g3320
S'w1'
p3368
tp3369
asg3338
(lp3370
(g3320
g3368
g3319
S'n'
tp3371
assg3321
(dp3372
g3328
(lp3373
(g3321
S'w9'
p3374
S's2'
p3375
S'p'
tp3376
a(g3321
g3374
S's8'
p3377
S'p'
tp3378
asg3333
(lp3379
(g3321
g3374
tp3380
asg3338
(lp3381
ssg3322
(dp3382
g3328
(lp3383
(g3322
S'w6'
p3384
S's2'
p3385
S'p'
tp3386
asg3333
(lp3387
(g3322
g3384
tp3388
asg3338
(lp3389
ssg3323
(dp3390
g3328
(lp3391
(g3323
S'w16'
p3392
g3331
S'p'
tp3393
a(g3323
S'w4'
p3394
g3355
S'p'
tp3395
asg3333
(lp3396
(g3323
g3392
tp3397
a(g3323
g3394
tp3398
asg3338
(lp3399
(g3323
g3392
g3317
S'n'
tp3400
a(g3323
g3394
g3319
S'n'
tp3401
assg3324
(dp3402
g3328
(lp3403
(g3324
S'w18'
p3404
S's1'
p3405
S'p'
tp3406
a(g3324
g3404
S's9'
p3407
S'p'
tp3408
asg3333
(lp3409
(g3324
g3404
tp3410
asg3338
(lp3411
ssg3325
(dp3412
g3328
(lp3413
(g3325
S'w14'
p3414
S's9'
S'p'
tp3415
asg3333
(lp3416
(g3325
g3414
tp3417
asg3338
(lp3418
ss(lp3419
(g3335
g3346
g3358
g3369
g3380
g3388
g3398
g3410
g3417
tp3420
a(g3335
g3346
g3369
g3388
g3398
g3410
g3417
(g3319
g3351
g3352
S'p'
tp3421
(g3321
g3374
g3375
S'p'
tp3422
tp3423
a(g3388
g3398
g3417
(g3318
g3336
g3317
S'n'
tp3424
(g3317
g3330
g3331
S'p'
tp3425
(g3324
g3404
g3405
S'p'
t(g3320
g3360
g3319
S'n'
tg3421
(g3321
g3374
g3377
S'p'
tp3426
tp3427
a(g3369
g3388
g3410
g3417
g3424
(g3317
g3330
g3323
S'n'
tp3428
(g3323
g3354
g3319
S'n'
tg3421
g3426
tp3429
a(g3369
g3410
g3417
g3424
g3428
(g3323
g3394
g3355
S'p'
t(g3322
g3384
g3385
S'p'
tg3421
g3426
tp3430
a(g3346
g3358
g3369
g3380
g3388
g3398
g3417
g3425
(g3324
g3404
g3407
S'p'
tp3431
tp3432
a(g3346
g3369
g3388
g3398
g3417
g3421
g3422
g3425
g3431
tp3433
aF-1
tp3434
a(((S's9'
p3435
S's8'
p3436
S's2'
p3437
S's1'
p3438
S's7'
p3439
S's5'
p3440
S's4'
p3441
S's12'
p3442
S's11'
p3443
t(S'w16'
S'w10'
S'w7'
S'w1'
S'w9'
S'w6'
S'w4'
S'w18'
S'w15'
tt(dp3444
g3435
(dp3445
S'p_paths'
p3446
(lp3447
(g3435
S'w16'
p3448
S's12'
p3449
S'p'
tp3450
asS'edges'
p3451
(lp3452
(g3435
g3448
tp3453
a(g3435
S'w10'
p3454
tp3455
asS'n_paths'
p3456
(lp3457
(g3435
g3448
g3441
S'n'
tp3458
a(g3435
g3454
g3436
S'n'
tp3459
assg3436
(dp3460
g3446
(lp3461
sg3451
(lp3462
(g3436
S'w10'
p3463
tp3464
asg3456
(lp3465
(g3436
g3463
g3435
S'n'
tp3466
assg3437
(dp3467
g3446
(lp3468
(g3437
S'w7'
p3469
S's7'
p3470
S'p'
tp3471
a(g3437
S'w4'
p3472
S's5'
p3473
S'p'
tp3474
asg3451
(lp3475
(g3437
g3469
tp3476
a(g3437
g3472
tp3477
a(g3437
S'w1'
p3478
tp3479
asg3456
(lp3480
(g3437
g3472
g3441
S'n'
tp3481
a(g3437
g3478
g3438
S'n'
tp3482
assg3438
(dp3483
g3446
(lp3484
sg3451
(lp3485
(g3438
S'w1'
p3486
tp3487
asg3456
(lp3488
(g3438
g3486
g3437
S'n'
tp3489
assg3439
(dp3490
g3446
(lp3491
(g3439
S'w9'
p3492
S's2'
p3493
S'p'
tp3494
a(g3439
g3492
S's8'
p3495
S'p'
tp3496
asg3451
(lp3497
(g3439
g3492
tp3498
asg3456
(lp3499
ssg3440
(dp3500
g3446
(lp3501
(g3440
S'w6'
p3502
S's2'
p3503
S'p'
tp3504
asg3451
(lp3505
(g3440
g3502
tp3506
asg3456
(lp3507
ssg3441
(dp3508
g3446
(lp3509
(g3441
S'w16'
p3510
g3449
S'p'
tp3511
a(g3441
S'w4'
p3512
g3473
S'p'
tp3513
asg3451
(lp3514
(g3441
g3510
tp3515
a(g3441
g3512
tp3516
asg3456
(lp3517
(g3441
g3510
g3435
S'n'
tp3518
a(g3441
g3512
g3437
S'n'
tp3519
assg3442
(dp3520
g3446
(lp3521
(g3442
S'w18'
p3522
S's1'
p3523
S'p'
tp3524
a(g3442
g3522
S's9'
p3525
S'p'
tp3526
asg3451
(lp3527
(g3442
g3522
tp3528
asg3456
(lp3529
ssg3443
(dp3530
g3446
(lp3531
(g3443
S'w15'
p3532
S's9'
S'p'
tp3533
a(g3443
g3532
S's4'
S'p'
tp3534
asg3451
(lp3535
(g3443
g3532
tp3536
asg3456
(lp3537
ss(lp3538
(g3453
g3464
g3476
g3487
g3498
g3506
g3516
g3528
g3536
tp3539
a(g3453
g3464
g3487
g3506
g3516
g3528
g3536
(g3437
g3469
g3470
S'p'
tp3540
(g3439
g3492
g3493
S'p'
tp3541
tp3542
a(g3506
g3516
g3536
(g3436
g3454
g3435
S'n'
tp3543
(g3435
g3448
g3449
S'p'
tp3544
(g3442
g3522
g3523
S'p'
t(g3438
g3478
g3437
S'n'
tg3540
(g3439
g3492
g3495
S'p'
tp3545
tp3546
a(g3487
g3506
g3528
g3536
g3543
(g3435
g3448
g3441
S'n'
tp3547
(g3441
g3472
g3437
S'n'
tg3540
g3545
tp3548
a(g3487
g3528
g3536
g3543
g3547
(g3441
g3512
g3473
S'p'
t(g3440
g3502
g3503
S'p'
tg3540
g3545
tp3549
a(g3464
g3476
g3487
g3498
g3506
g3516
g3536
g3544
(g3442
g3522
g3525
S'p'
tp3550
tp3551
a(g3464
g3487
g3506
g3516
g3536
g3540
g3541
g3544
g3550
tp3552
aF-1
tp3553
a(((S's9'
p3554
S's8'
p3555
S's2'
p3556
S's1'
p3557
S's7'
p3558
S's5'
p3559
S's4'
p3560
S's12'
p3561
S's11'
p3562
t(S'w13'
S'w10'
S'w7'
S'w1'
S'w9'
S'w6'
S'w16'
S'w18'
S'w15'
tt(dp3563
g3554
(dp3564
S'p_paths'
p3565
(lp3566
(g3554
S'w16'
p3567
S's12'
p3568
S'p'
tp3569
a(g3554
S'w13'
p3570
S's11'
p3571
S'p'
tp3572
asS'edges'
p3573
(lp3574
(g3554
g3567
tp3575
a(g3554
g3570
tp3576
a(g3554
S'w10'
p3577
tp3578
asS'n_paths'
p3579
(lp3580
(g3554
g3567
g3560
S'n'
tp3581
a(g3554
g3577
g3555
S'n'
tp3582
assg3555
(dp3583
g3565
(lp3584
sg3573
(lp3585
(g3555
S'w10'
p3586
tp3587
asg3579
(lp3588
(g3555
g3586
g3554
S'n'
tp3589
assg3556
(dp3590
g3565
(lp3591
(g3556
S'w7'
p3592
S's7'
p3593
S'p'
tp3594
asg3573
(lp3595
(g3556
g3592
tp3596
a(g3556
S'w1'
p3597
tp3598
asg3579
(lp3599
(g3556
g3597
g3557
S'n'
tp3600
assg3557
(dp3601
g3565
(lp3602
sg3573
(lp3603
(g3557
S'w1'
p3604
tp3605
asg3579
(lp3606
(g3557
g3604
g3556
S'n'
tp3607
assg3558
(dp3608
g3565
(lp3609
(g3558
S'w9'
p3610
S's2'
p3611
S'p'
tp3612
a(g3558
g3610
S's8'
p3613
S'p'
tp3614
asg3573
(lp3615
(g3558
g3610
tp3616
asg3579
(lp3617
ssg3559
(dp3618
g3565
(lp3619
(g3559
S'w6'
p3620
S's2'
S'p'
tp3621
asg3573
(lp3622
(g3559
g3620
tp3623
asg3579
(lp3624
ssg3560
(dp3625
g3565
(lp3626
(g3560
S'w16'
p3627
g3568
S'p'
tp3628
asg3573
(lp3629
(g3560
g3627
tp3630
asg3579
(lp3631
(g3560
g3627
g3554
S'n'
tp3632
assg3561
(dp3633
g3565
(lp3634
(g3561
S'w18'
p3635
S's1'
p3636
S'p'
tp3637
a(g3561
g3635
S's9'
p3638
S'p'
tp3639
asg3573
(lp3640
(g3561
g3635
tp3641
asg3579
(lp3642
ssg3562
(dp3643
g3565
(lp3644
(g3562
S'w15'
p3645
S's9'
p3646
S'p'
tp3647
a(g3562
g3645
S's4'
p3648
S'p'
tp3649
asg3573
(lp3650
(g3562
g3645
tp3651
asg3579
(lp3652
ss(lp3653
(g3576
g3587
g3596
g3605
g3616
g3623
g3630
g3641
g3651
tp3654
a(g3587
g3596
g3605
g3616
g3623
g3630
g3641
(g3562
g3645
g3646
S'p'
tp3655
(g3554
g3570
g3571
S'p'
tp3656
tp3657
a(g3587
g3596
g3605
g3616
g3623
(g3561
g3635
g3638
S'p'
tp3658
g3656
(g3562
g3645
g3648
S'p'
tp3659
(g3560
g3627
g3568
S'p'
tp3660
tp3661
a(g3576
g3587
g3605
g3623
g3630
g3641
g3651
(g3556
g3592
g3593
S'p'
tp3662
(g3558
g3610
g3611
S'p'
tp3663
tp3664
a(g3587
g3596
g3605
g3616
g3623
g3641
(g3560
g3567
g3554
S'n'
tp3665
g3656
g3659
tp3666
a(g3623
(g3555
g3577
g3554
S'n'
tg3656
g3659
g3660
(g3561
g3635
g3636
S'p'
t(g3557
g3597
g3556
S'n'
tg3662
(g3558
g3610
g3613
S'p'
ttp3667
a(g3587
g3605
g3623
g3630
g3641
g3655
g3656
g3662
g3663
tp3668
a(g3587
g3605
g3623
g3658
g3656
g3659
g3660
g3662
g3663
tp3669
a(g3587
g3605
g3623
g3641
g3662
g3663
g3665
g3656
g3659
tp3670
aF-1
tp3671
a(((S's9'
p3672
S's8'
p3673
S's2'
p3674
S's1'
p3675
S's7'
p3676
S's5'
p3677
S's4'
p3678
S's12'
p3679
S's11'
p3680
t(S'w13'
S'w10'
S'w7'
S'w1'
S'w9'
S'w5'
S'w16'
S'w18'
S'w15'
tt(dp3681
g3672
(dp3682
S'p_paths'
p3683
(lp3684
(g3672
S'w16'
p3685
S's12'
p3686
S'p'
tp3687
a(g3672
S'w13'
p3688
S's11'
p3689
S'p'
tp3690
asS'edges'
p3691
(lp3692
(g3672
g3685
tp3693
a(g3672
g3688
tp3694
a(g3672
S'w10'
p3695
tp3696
asS'n_paths'
p3697
(lp3698
(g3672
g3685
g3678
S'n'
tp3699
a(g3672
g3695
g3673
S'n'
tp3700
assg3673
(dp3701
g3683
(lp3702
sg3691
(lp3703
(g3673
S'w10'
p3704
tp3705
asg3697
(lp3706
(g3673
g3704
g3672
S'n'
tp3707
assg3674
(dp3708
g3683
(lp3709
(g3674
S'w7'
p3710
S's7'
p3711
S'p'
tp3712
asg3691
(lp3713
(g3674
g3710
tp3714
a(g3674
S'w1'
p3715
tp3716
asg3697
(lp3717
(g3674
g3715
g3675
S'n'
tp3718
assg3675
(dp3719
g3683
(lp3720
sg3691
(lp3721
(g3675
S'w1'
p3722
tp3723
asg3697
(lp3724
(g3675
g3722
g3674
S'n'
tp3725
assg3676
(dp3726
g3683
(lp3727
(g3676
S'w9'
p3728
S's2'
p3729
S'p'
tp3730
a(g3676
g3728
S's8'
p3731
S'p'
tp3732
asg3691
(lp3733
(g3676
g3728
tp3734
asg3697
(lp3735
ssg3677
(dp3736
g3683
(lp3737
(g3677
S'w5'
p3738
S's2'
S'p'
tp3739
a(g3677
g3738
S's4'
S'p'
tp3740
asg3691
(lp3741
(g3677
g3738
tp3742
asg3697
(lp3743
ssg3678
(dp3744
g3683
(lp3745
(g3678
S'w16'
p3746
g3686
S'p'
tp3747
asg3691
(lp3748
(g3678
g3746
tp3749
asg3697
(lp3750
(g3678
g3746
g3672
S'n'
tp3751
assg3679
(dp3752
g3683
(lp3753
(g3679
S'w18'
p3754
S's1'
p3755
S'p'
tp3756
a(g3679
g3754
S's9'
p3757
S'p'
tp3758
asg3691
(lp3759
(g3679
g3754
tp3760
asg3697
(lp3761
ssg3680
(dp3762
g3683
(lp3763
(g3680
S'w15'
p3764
S's9'
p3765
S'p'
tp3766
a(g3680
g3764
S's4'
p3767
S'p'
tp3768
asg3691
(lp3769
(g3680
g3764
tp3770
asg3697
(lp3771
ss(lp3772
(g3694
g3705
g3714
g3723
g3734
g3742
g3749
g3760
g3770
tp3773
a(g3705
g3714
g3723
g3734
g3742
g3749
g3760
(g3680
g3764
g3765
S'p'
tp3774
(g3672
g3688
g3689
S'p'
tp3775
tp3776
a(g3705
g3714
g3723
g3734
g3742
(g3679
g3754
g3757
S'p'
tp3777
g3775
(g3680
g3764
g3767
S'p'
tp3778
(g3678
g3746
g3686
S'p'
tp3779
tp3780
a(g3694
g3705
g3723
g3742
g3749
g3760
g3770
(g3674
g3710
g3711
S'p'
tp3781
(g3676
g3728
g3729
S'p'
tp3782
tp3783
a(g3705
g3714
g3723
g3734
g3742
g3760
(g3678
g3685
g3672
S'n'
tp3784
g3775
g3778
tp3785
a(g3742
(g3673
g3695
g3672
S'n'
tg3775
g3778
g3779
(g3679
g3754
g3755
S'p'
t(g3675
g3715
g3674
S'n'
tg3781
(g3676
g3728
g3731
S'p'
ttp3786
a(g3705
g3723
g3742
g3749
g3760
g3774
g3775
g3781
g3782
tp3787
a(g3705
g3723
g3742
g3777
g3775
g3778
g3779
g3781
g3782
tp3788
a(g3705
g3723
g3742
g3760
g3781
g3782
g3784
g3775
g3778
tp3789
aF-1
tp3790
a(((S's9'
p3791
S's8'
p3792
S's2'
p3793
S's10'
p3794
S's7'
p3795
S's6'
p3796
S's5'
p3797
S's4'
p3798
S's12'
p3799
t(S'w16'
S'w10'
S'w1'
S'w12'
S'w9'
S'w13'
S'w6'
S'w4'
S'w18'
tt(dp3800
g3791
(dp3801
S'p_paths'
p3802
(lp3803
(g3791
S'w16'
p3804
S's12'
p3805
S'p'
tp3806
a(g3791
S'w10'
p3807
S's10'
p3808
S'p'
tp3809
asS'edges'
p3810
(lp3811
(g3791
g3804
tp3812
a(g3791
S'w13'
p3813
tp3814
a(g3791
g3807
tp3815
asS'n_paths'
p3816
(lp3817
(g3791
g3804
g3798
S'n'
tp3818
a(g3791
g3813
g3796
S'n'
tp3819
a(g3791
g3807
g3792
S'n'
tp3820
assg3792
(dp3821
g3802
(lp3822
(g3792
S'w10'
p3823
g3808
S'p'
tp3824
asg3810
(lp3825
(g3792
g3823
tp3826
asg3816
(lp3827
(g3792
g3823
g3791
S'n'
tp3828
assg3793
(dp3829
g3802
(lp3830
(g3793
S'w4'
p3831
S's5'
p3832
S'p'
tp3833
asg3810
(lp3834
(g3793
g3831
tp3835
a(g3793
S'w1'
tp3836
asg3816
(lp3837
(g3793
g3831
g3798
S'n'
tp3838
assg3794
(dp3839
g3802
(lp3840
(g3794
S'w12'
p3841
S's9'
S'p'
tp3842
a(g3794
g3841
S's6'
S'p'
tp3843
asg3810
(lp3844
(g3794
g3841
tp3845
asg3816
(lp3846
ssg3795
(dp3847
g3802
(lp3848
(g3795
S'w9'
p3849
S's2'
S'p'
tp3850
a(g3795
g3849
S's8'
S'p'
tp3851
asg3810
(lp3852
(g3795
g3849
tp3853
asg3816
(lp3854
ssg3796
(dp3855
g3802
(lp3856
sg3810
(lp3857
(g3796
S'w13'
p3858
tp3859
asg3816
(lp3860
(g3796
g3858
g3791
S'n'
tp3861
assg3797
(dp3862
g3802
(lp3863
(g3797
S'w6'
p3864
S's2'
S'p'
tp3865
a(g3797
g3864
S's6'
p3866
S'p'
tp3867
asg3810
(lp3868
(g3797
g3864
tp3869
asg3816
(lp3870
ssg3798
(dp3871
g3802
(lp3872
(g3798
S'w16'
p3873
g3805
S'p'
tp3874
a(g3798
S'w4'
p3875
g3832
S'p'
tp3876
asg3810
(lp3877
(g3798
g3873
tp3878
a(g3798
g3875
tp3879
asg3816
(lp3880
(g3798
g3873
g3791
S'n'
tp3881
a(g3798
g3875
g3793
S'n'
tp3882
assg3799
(dp3883
g3802
(lp3884
(g3799
S'w18'
p3885
S's9'
p3886
S'p'
tp3887
asg3810
(lp3888
(g3799
g3885
tp3889
asg3816
(lp3890
ss(lp3891
(g3812
g3826
g3836
g3845
g3853
g3859
g3869
g3879
g3889
tp3892
a(g3826
g3836
g3845
g3853
g3859
g3869
g3879
(g3799
g3885
g3886
S'p'
t(g3791
g3804
g3805
S'p'
ttp3893
a(g3826
g3836
g3845
g3853
g3889
(g3791
g3804
g3798
S'n'
t(g3798
g3875
g3832
S'p'
t(g3797
g3864
g3866
S'p'
t(g3796
g3813
g3791
S'n'
ttp3894
aF-1
tp3895
a(((S's9'
p3896
S's8'
p3897
S's2'
p3898
S's10'
p3899
S's7'
p3900
S's6'
p3901
S's5'
p3902
S's4'
p3903
S's12'
p3904
t(S'w16'
S'w10'
S'w1'
S'w12'
S'w8'
S'w13'
S'w6'
S'w4'
S'w18'
tt(dp3905
g3896
(dp3906
S'p_paths'
p3907
(lp3908
(g3896
S'w16'
p3909
S's12'
p3910
S'p'
tp3911
a(g3896
S'w10'
p3912
S's10'
p3913
S'p'
tp3914
asS'edges'
p3915
(lp3916
(g3896
g3909
tp3917
a(g3896
S'w13'
p3918
tp3919
a(g3896
g3912
tp3920
asS'n_paths'
p3921
(lp3922
(g3896
g3909
g3903
S'n'
tp3923
a(g3896
g3918
g3901
S'n'
tp3924
a(g3896
g3912
g3897
S'n'
tp3925
assg3897
(dp3926
g3907
(lp3927
(g3897
S'w10'
p3928
g3913
S'p'
tp3929
asg3915
(lp3930
(g3897
g3928
tp3931
asg3921
(lp3932
(g3897
g3928
g3896
S'n'
tp3933
assg3898
(dp3934
g3907
(lp3935
(g3898
S'w4'
p3936
S's5'
p3937
S'p'
tp3938
asg3915
(lp3939
(g3898
g3936
tp3940
a(g3898
S'w1'
tp3941
asg3921
(lp3942
(g3898
g3936
g3903
S'n'
tp3943
assg3899
(dp3944
g3907
(lp3945
(g3899
S'w12'
p3946
S's9'
S'p'
tp3947
a(g3899
g3946
S's6'
S'p'
tp3948
asg3915
(lp3949
(g3899
g3946
tp3950
asg3921
(lp3951
ssg3900
(dp3952
g3907
(lp3953
(g3900
S'w8'
p3954
S's2'
S'p'
tp3955
a(g3900
g3954
S's6'
S'p'
tp3956
asg3915
(lp3957
(g3900
g3954
tp3958
asg3921
(lp3959
ssg3901
(dp3960
g3907
(lp3961
sg3915
(lp3962
(g3901
S'w13'
p3963
tp3964
asg3921
(lp3965
(g3901
g3963
g3896
S'n'
tp3966
assg3902
(dp3967
g3907
(lp3968
(g3902
S'w6'
p3969
S's2'
S'p'
tp3970
a(g3902
g3969
S's6'
p3971
S'p'
tp3972
asg3915
(lp3973
(g3902
g3969
tp3974
asg3921
(lp3975
ssg3903
(dp3976
g3907
(lp3977
(g3903
S'w16'
p3978
g3910
S'p'
tp3979
a(g3903
S'w4'
p3980
g3937
S'p'
tp3981
asg3915
(lp3982
(g3903
g3978
tp3983
a(g3903
g3980
tp3984
asg3921
(lp3985
(g3903
g3978
g3896
S'n'
tp3986
a(g3903
g3980
g3898
S'n'
tp3987
assg3904
(dp3988
g3907
(lp3989
(g3904
S'w18'
p3990
S's9'
p3991
S'p'
tp3992
asg3915
(lp3993
(g3904
g3990
tp3994
asg3921
(lp3995
ss(lp3996
(g3917
g3931
g3941
g3950
g3958
g3964
g3974
g3984
g3994
tp3997
a(g3931
g3941
g3950
g3958
g3964
g3974
g3984
(g3904
g3990
g3991
S'p'
t(g3896
g3909
g3910
S'p'
ttp3998
a(g3931
g3941
g3950
g3958
g3994
(g3896
g3909
g3903
S'n'
t(g3903
g3980
g3937
S'p'
t(g3902
g3969
g3971
S'p'
t(g3901
g3918
g3896
S'n'
ttp3999
aF-1
tp4000
a(((S's9'
p4001
S's8'
p4002
S's2'
p4003
S's7'
p4004
S's6'
p4005
S's5'
p4006
S's4'
p4007
S's12'
p4008
S's11'
p4009
t(S'w16'
S'w10'
S'w1'
S'w9'
S'w7'
S'w6'
S'w4'
S'w18'
S'w15'
tt(dp4010
g4001
(dp4011
S'p_paths'
p4012
(lp4013
(g4001
S'w16'
p4014
S's12'
p4015
S'p'
tp4016
asS'edges'
p4017
(lp4018
(g4001
g4014
tp4019
a(g4001
S'w10'
p4020
tp4021
asS'n_paths'
p4022
(lp4023
(g4001
g4014
g4007
S'n'
tp4024
a(g4001
g4020
g4002
S'n'
tp4025
assg4002
(dp4026
g4012
(lp4027
sg4017
(lp4028
(g4002
S'w10'
p4029
tp4030
asg4022
(lp4031
(g4002
g4029
g4001
S'n'
tp4032
assg4003
(dp4033
g4012
(lp4034
(g4003
S'w7'
p4035
S's7'
p4036
S'p'
tp4037
a(g4003
S'w4'
p4038
S's5'
p4039
S'p'
tp4040
asg4017
(lp4041
(g4003
g4035
tp4042
a(g4003
g4038
tp4043
a(g4003
S'w1'
tp4044
asg4022
(lp4045
(g4003
g4035
g4005
S'n'
tp4046
a(g4003
g4038
g4007
S'n'
tp4047
assg4009
(dp4048
g4012
(lp4049
(g4009
S'w15'
p4050
S's9'
S'p'
tp4051
a(g4009
g4050
S's4'
S'p'
tp4052
asg4017
(lp4053
(g4009
g4050
tp4054
asg4022
(lp4055
ssg4004
(dp4056
g4012
(lp4057
(g4004
S'w9'
p4058
S's2'
S'p'
tp4059
a(g4004
g4058
S's8'
p4060
S'p'
tp4061
asg4017
(lp4062
(g4004
g4058
tp4063
asg4022
(lp4064
ssg4005
(dp4065
g4012
(lp4066
(g4005
S'w7'
p4067
g4036
S'p'
tp4068
asg4017
(lp4069
(g4005
g4067
tp4070
asg4022
(lp4071
(g4005
g4067
g4003
S'n'
tp4072
assg4006
(dp4073
g4012
(lp4074
(g4006
S'w6'
p4075
S's2'
S'p'
tp4076
a(g4006
g4075
S's6'
p4077
S'p'
tp4078
asg4017
(lp4079
(g4006
g4075
tp4080
asg4022
(lp4081
ssg4007
(dp4082
g4012
(lp4083
(g4007
S'w16'
p4084
g4015
S'p'
tp4085
a(g4007
S'w4'
p4086
g4039
S'p'
tp4087
asg4017
(lp4088
(g4007
g4084
tp4089
a(g4007
g4086
tp4090
asg4022
(lp4091
(g4007
g4084
g4001
S'n'
tp4092
a(g4007
g4086
g4003
S'n'
tp4093
assg4008
(dp4094
g4012
(lp4095
(g4008
S'w18'
p4096
S's9'
p4097
S'p'
tp4098
asg4017
(lp4099
(g4008
g4096
tp4100
asg4022
(lp4101
ss(lp4102
(g4019
g4030
g4044
g4054
g4063
g4070
g4080
g4090
g4100
tp4103
a(g4044
g4054
g4100
(g4002
g4020
g4001
S'n'
t(g4001
g4014
g4007
S'n'
t(g4007
g4086
g4039
S'p'
t(g4006
g4075
g4077
S'p'
t(g4005
g4067
g4036
S'p'
t(g4004
g4058
g4060
S'p'
ttp4104
a(g4030
g4044
g4054
g4063
g4070
g4080
g4090
(g4001
g4014
g4015
S'p'
t(g4008
g4096
g4097
S'p'
ttp4105
aF-1
tp4106
a(((S's9'
p4107
S's8'
p4108
S's2'
p4109
S's7'
p4110
S's6'
p4111
S's5'
p4112
S's4'
p4113
S's12'
p4114
S's11'
p4115
t(S'w16'
S'w10'
S'w1'
S'w9'
S'w7'
S'w6'
S'w4'
S'w18'
S'w14'
tt(dp4116
g4107
(dp4117
S'p_paths'
p4118
(lp4119
(g4107
S'w16'
p4120
S's12'
p4121
S'p'
tp4122
asS'edges'
p4123
(lp4124
(g4107
g4120
tp4125
a(g4107
S'w10'
p4126
tp4127
asS'n_paths'
p4128
(lp4129
(g4107
g4120
g4113
S'n'
tp4130
a(g4107
g4126
g4108
S'n'
tp4131
assg4108
(dp4132
g4118
(lp4133
sg4123
(lp4134
(g4108
S'w10'
p4135
tp4136
asg4128
(lp4137
(g4108
g4135
g4107
S'n'
tp4138
assg4109
(dp4139
g4118
(lp4140
(g4109
S'w7'
p4141
S's7'
p4142
S'p'
tp4143
a(g4109
S'w4'
p4144
S's5'
p4145
S'p'
tp4146
asg4123
(lp4147
(g4109
g4141
tp4148
a(g4109
g4144
tp4149
a(g4109
S'w1'
tp4150
asg4128
(lp4151
(g4109
g4141
g4111
S'n'
tp4152
a(g4109
g4144
g4113
S'n'
tp4153
assg4115
(dp4154
g4118
(lp4155
(g4115
S'w14'
p4156
S's9'
S'p'
tp4157
a(g4115
g4156
S's6'
S'p'
tp4158
asg4123
(lp4159
(g4115
g4156
tp4160
asg4128
(lp4161
ssg4110
(dp4162
g4118
(lp4163
(g4110
S'w9'
p4164
S's2'
S'p'
tp4165
a(g4110
g4164
S's8'
p4166
S'p'
tp4167
asg4123
(lp4168
(g4110
g4164
tp4169
asg4128
(lp4170
ssg4111
(dp4171
g4118
(lp4172
(g4111
S'w7'
p4173
g4142
S'p'
tp4174
asg4123
(lp4175
(g4111
g4173
tp4176
asg4128
(lp4177
(g4111
g4173
g4109
S'n'
tp4178
assg4112
(dp4179
g4118
(lp4180
(g4112
S'w6'
p4181
S's2'
S'p'
tp4182
a(g4112
g4181
S's6'
p4183
S'p'
tp4184
asg4123
(lp4185
(g4112
g4181
tp4186
asg4128
(lp4187
ssg4113
(dp4188
g4118
(lp4189
(g4113
S'w16'
p4190
g4121
S'p'
tp4191
a(g4113
S'w4'
p4192
g4145
S'p'
tp4193
asg4123
(lp4194
(g4113
g4190
tp4195
a(g4113
g4192
tp4196
asg4128
(lp4197
(g4113
g4190
g4107
S'n'
tp4198
a(g4113
g4192
g4109
S'n'
tp4199
assg4114
(dp4200
g4118
(lp4201
(g4114
S'w18'
p4202
S's9'
p4203
S'p'
tp4204
asg4123
(lp4205
(g4114
g4202
tp4206
asg4128
(lp4207
ss(lp4208
(g4125
g4136
g4150
g4160
g4169
g4176
g4186
g4196
g4206
tp4209
a(g4150
g4160
g4206
(g4108
g4126
g4107
S'n'
t(g4107
g4120
g4113
S'n'
t(g4113
g4192
g4145
S'p'
t(g4112
g4181
g4183
S'p'
t(g4111
g4173
g4142
S'p'
t(g4110
g4164
g4166
S'p'
ttp4210
a(g4136
g4150
g4160
g4169
g4176
g4186
g4196
(g4107
g4120
g4121
S'p'
t(g4114
g4202
g4203
S'p'
ttp4211
aF-1
tp4212
a(((S's9'
p4213
S's8'
p4214
S's2'
p4215
S's7'
p4216
S's6'
p4217
S's5'
p4218
S's4'
p4219
S's12'
p4220
S's11'
p4221
t(S'w13'
S'w10'
S'w1'
S'w9'
S'w7'
S'w6'
S'w16'
S'w18'
S'w15'
tt(dp4222
g4213
(dp4223
S'p_paths'
p4224
(lp4225
(g4213
S'w16'
p4226
S's12'
p4227
S'p'
tp4228
a(g4213
S'w13'
p4229
S's11'
p4230
S'p'
tp4231
asS'edges'
p4232
(lp4233
(g4213
g4226
tp4234
a(g4213
g4229
tp4235
a(g4213
S'w10'
p4236
tp4237
asS'n_paths'
p4238
(lp4239
(g4213
g4226
g4219
S'n'
tp4240
a(g4213
g4229
g4217
S'n'
tp4241
a(g4213
g4236
g4214
S'n'
tp4242
assg4214
(dp4243
g4224
(lp4244
sg4232
(lp4245
(g4214
S'w10'
p4246
tp4247
asg4238
(lp4248
(g4214
g4246
g4213
S'n'
tp4249
assg4215
(dp4250
g4224
(lp4251
(g4215
S'w7'
p4252
S's7'
p4253
S'p'
tp4254
asg4232
(lp4255
(g4215
g4252
tp4256
a(g4215
S'w1'
tp4257
asg4238
(lp4258
(g4215
g4252
g4217
S'n'
tp4259
assg4221
(dp4260
g4224
(lp4261
(g4221
S'w15'
p4262
S's9'
p4263
S'p'
tp4264
a(g4221
g4262
S's4'
p4265
S'p'
tp4266
asg4232
(lp4267
(g4221
g4262
tp4268
asg4238
(lp4269
ssg4216
(dp4270
g4224
(lp4271
(g4216
S'w9'
p4272
S's2'
S'p'
tp4273
a(g4216
g4272
S's8'
p4274
S'p'
tp4275
asg4232
(lp4276
(g4216
g4272
tp4277
asg4238
(lp4278
ssg4217
(dp4279
g4224
(lp4280
(g4217
S'w7'
p4281
g4253
S'p'
tp4282
a(g4217
S'w13'
p4283
g4230
S'p'
tp4284
asg4232
(lp4285
(g4217
g4281
tp4286
a(g4217
g4283
tp4287
asg4238
(lp4288
(g4217
g4281
g4215
S'n'
tp4289
a(g4217
g4283
g4213
S'n'
tp4290
assg4218
(dp4291
g4224
(lp4292
(g4218
S'w6'
p4293
S's2'
S'p'
tp4294
a(g4218
g4293
S's6'
S'p'
tp4295
asg4232
(lp4296
(g4218
g4293
tp4297
asg4238
(lp4298
ssg4219
(dp4299
g4224
(lp4300
(g4219
S'w16'
p4301
g4227
S'p'
tp4302
asg4232
(lp4303
(g4219
g4301
tp4304
asg4238
(lp4305
(g4219
g4301
g4213
S'n'
tp4306
assg4220
(dp4307
g4224
(lp4308
(g4220
S'w18'
p4309
S's9'
p4310
S'p'
tp4311
asg4232
(lp4312
(g4220
g4309
tp4313
asg4238
(lp4314
ss(lp4315
(g4235
g4247
g4257
g4268
g4277
g4286
g4297
g4304
g4313
tp4316
a(g4247
g4257
g4277
g4286
g4297
g4304
g4313
(g4221
g4262
g4263
S'p'
t(g4213
g4229
g4230
S'p'
tp4317
tp4318
a(g4247
g4257
g4277
g4286
g4297
(g4220
g4309
g4310
S'p'
tg4317
(g4221
g4262
g4265
S'p'
tp4319
(g4219
g4301
g4227
S'p'
ttp4320
a(g4247
g4257
g4277
g4286
g4297
g4313
(g4219
g4226
g4213
S'n'
tg4317
g4319
tp4321
a(g4257
g4268
g4297
g4304
g4313
(g4214
g4236
g4213
S'n'
t(g4213
g4229
g4217
S'n'
t(g4217
g4281
g4253
S'p'
t(g4216
g4272
g4274
S'p'
ttp4322
aF-1
tp4323
a(((S's9'
p4324
S's8'
p4325
S's2'
p4326
S's7'
p4327
S's6'
p4328
S's5'
p4329
S's4'
p4330
S's12'
p4331
S's11'
p4332
t(S'w13'
S'w10'
S'w1'
S'w9'
S'w7'
S'w5'
S'w16'
S'w18'
S'w15'
tt(dp4333
g4324
(dp4334
S'p_paths'
p4335
(lp4336
(g4324
S'w16'
p4337
S's12'
p4338
S'p'
tp4339
a(g4324
S'w13'
p4340
S's11'
p4341
S'p'
tp4342
asS'edges'
p4343
(lp4344
(g4324
g4337
tp4345
a(g4324
g4340
tp4346
a(g4324
S'w10'
p4347
tp4348
asS'n_paths'
p4349
(lp4350
(g4324
g4337
g4330
S'n'
tp4351
a(g4324
g4340
g4328
S'n'
tp4352
a(g4324
g4347
g4325
S'n'
tp4353
assg4325
(dp4354
g4335
(lp4355
sg4343
(lp4356
(g4325
S'w10'
p4357
tp4358
asg4349
(lp4359
(g4325
g4357
g4324
S'n'
tp4360
assg4326
(dp4361
g4335
(lp4362
(g4326
S'w7'
p4363
S's7'
p4364
S'p'
tp4365
asg4343
(lp4366
(g4326
g4363
tp4367
a(g4326
S'w1'
tp4368
asg4349
(lp4369
(g4326
g4363
g4328
S'n'
tp4370
assg4332
(dp4371
g4335
(lp4372
(g4332
S'w15'
p4373
S's9'
p4374
S'p'
tp4375
a(g4332
g4373
S's4'
p4376
S'p'
tp4377
asg4343
(lp4378
(g4332
g4373
tp4379
asg4349
(lp4380
ssg4327
(dp4381
g4335
(lp4382
(g4327
S'w9'
p4383
S's2'
S'p'
tp4384
a(g4327
g4383
S's8'
p4385
S'p'
tp4386
asg4343
(lp4387
(g4327
g4383
tp4388
asg4349
(lp4389
ssg4328
(dp4390
g4335
(lp4391
(g4328
S'w7'
p4392
g4364
S'p'
tp4393
a(g4328
S'w13'
p4394
g4341
S'p'
tp4395
asg4343
(lp4396
(g4328
g4392
tp4397
a(g4328
g4394
tp4398
asg4349
(lp4399
(g4328
g4392
g4326
S'n'
tp4400
a(g4328
g4394
g4324
S'n'
tp4401
assg4329
(dp4402
g4335
(lp4403
(g4329
S'w5'
p4404
S's2'
S'p'
tp4405
a(g4329
g4404
S's4'
S'p'
tp4406
asg4343
(lp4407
(g4329
g4404
tp4408
asg4349
(lp4409
ssg4330
(dp4410
g4335
(lp4411
(g4330
S'w16'
p4412
g4338
S'p'
tp4413
asg4343
(lp4414
(g4330
g4412
tp4415
asg4349
(lp4416
(g4330
g4412
g4324
S'n'
tp4417
assg4331
(dp4418
g4335
(lp4419
(g4331
S'w18'
p4420
S's9'
p4421
S'p'
tp4422
asg4343
(lp4423
(g4331
g4420
tp4424
asg4349
(lp4425
ss(lp4426
(g4346
g4358
g4368
g4379
g4388
g4397
g4408
g4415
g4424
tp4427
a(g4358
g4368
g4388
g4397
g4408
g4415
g4424
(g4332
g4373
g4374
S'p'
t(g4324
g4340
g4341
S'p'
tp4428
tp4429
a(g4358
g4368
g4388
g4397
g4408
(g4331
g4420
g4421
S'p'
tg4428
(g4332
g4373
g4376
S'p'
tp4430
(g4330
g4412
g4338
S'p'
ttp4431
a(g4358
g4368
g4388
g4397
g4408
g4424
(g4330
g4337
g4324
S'n'
tg4428
g4430
tp4432
a(g4368
g4379
g4408
g4415
g4424
(g4325
g4347
g4324
S'n'
t(g4324
g4340
g4328
S'n'
t(g4328
g4392
g4364
S'p'
t(g4327
g4383
g4385
S'p'
ttp4433
aF-1
tp4434
a(((S's9'
p4435
S's8'
p4436
S's1'
p4437
S's10'
p4438
S's7'
p4439
S's6'
p4440
S's5'
p4441
S's4'
p4442
S's12'
p4443
t(S'w16'
S'w10'
S'w1'
S'w12'
S'w9'
S'w13'
S'w6'
S'w4'
S'w18'
tt(dp4444
g4435
(dp4445
S'p_paths'
p4446
(lp4447
(g4435
S'w16'
p4448
S's12'
p4449
S'p'
tp4450
a(g4435
S'w10'
p4451
S's10'
p4452
S'p'
tp4453
asS'edges'
p4454
(lp4455
(g4435
g4448
tp4456
a(g4435
S'w13'
p4457
tp4458
a(g4435
g4451
tp4459
asS'n_paths'
p4460
(lp4461
(g4435
g4448
g4442
S'n'
tp4462
a(g4435
g4457
g4440
S'n'
tp4463
a(g4435
g4451
g4436
S'n'
tp4464
assg4436
(dp4465
g4446
(lp4466
(g4436
S'w10'
p4467
g4452
S'p'
tp4468
asg4454
(lp4469
(g4436
g4467
tp4470
asg4460
(lp4471
(g4436
g4467
g4435
S'n'
tp4472
assg4443
(dp4473
g4446
(lp4474
(g4443
S'w18'
p4475
S's1'
S'p'
tp4476
a(g4443
g4475
S's9'
p4477
S'p'
tp4478
asg4454
(lp4479
(g4443
g4475
tp4480
asg4460
(lp4481
ssg4437
(dp4482
g4446
(lp4483
sg4454
(lp4484
(g4437
S'w1'
tp4485
asg4460
(lp4486
ssg4438
(dp4487
g4446
(lp4488
(g4438
S'w12'
p4489
S's9'
S'p'
tp4490
a(g4438
g4489
S's6'
S'p'
tp4491
asg4454
(lp4492
(g4438
g4489
tp4493
asg4460
(lp4494
ssg4439
(dp4495
g4446
(lp4496
(g4439
S'w9'
p4497
S's8'
S'p'
tp4498
asg4454
(lp4499
(g4439
g4497
tp4500
asg4460
(lp4501
ssg4440
(dp4502
g4446
(lp4503
sg4454
(lp4504
(g4440
S'w13'
p4505
tp4506
asg4460
(lp4507
(g4440
g4505
g4435
S'n'
tp4508
assg4441
(dp4509
g4446
(lp4510
(g4441
S'w6'
p4511
S's6'
p4512
S'p'
tp4513
asg4454
(lp4514
(g4441
g4511
tp4515
asg4460
(lp4516
ssg4442
(dp4517
g4446
(lp4518
(g4442
S'w16'
p4519
g4449
S'p'
tp4520
a(g4442
S'w4'
p4521
S's5'
p4522
S'p'
tp4523
asg4454
(lp4524
(g4442
g4519
tp4525
a(g4442
g4521
tp4526
asg4460
(lp4527
(g4442
g4519
g4435
S'n'
tp4528
ass(lp4529
(g4456
g4470
g4480
g4485
g4493
g4500
g4506
g4515
g4526
tp4530
a(g4470
g4485
g4493
g4500
g4506
g4515
g4526
(g4443
g4475
g4477
S'p'
t(g4435
g4448
g4449
S'p'
ttp4531
a(g4470
g4480
g4485
g4493
g4500
(g4441
g4511
g4512
S'p'
t(g4440
g4457
g4435
S'n'
t(g4435
g4448
g4442
S'n'
t(g4442
g4521
g4522
S'p'
ttp4532
aF-1
tp4533
a(((S's9'
p4534
S's8'
p4535
S's1'
p4536
S's10'
p4537
S's7'
p4538
S's6'
p4539
S's5'
p4540
S's4'
p4541
S's12'
p4542
t(S'w16'
S'w10'
S'w1'
S'w12'
S'w8'
S'w13'
S'w6'
S'w4'
S'w18'
tt(dp4543
g4534
(dp4544
S'p_paths'
p4545
(lp4546
(g4534
S'w16'
p4547
S's12'
p4548
S'p'
tp4549
a(g4534
S'w10'
p4550
S's10'
p4551
S'p'
tp4552
asS'edges'
p4553
(lp4554
(g4534
g4547
tp4555
a(g4534
S'w13'
p4556
tp4557
a(g4534
g4550
tp4558
asS'n_paths'
p4559
(lp4560
(g4534
g4547
g4541
S'n'
tp4561
a(g4534
g4556
g4539
S'n'
tp4562
a(g4534
g4550
g4535
S'n'
tp4563
assg4535
(dp4564
g4545
(lp4565
(g4535
S'w10'
p4566
g4551
S'p'
tp4567
asg4553
(lp4568
(g4535
g4566
tp4569
asg4559
(lp4570
(g4535
g4566
g4534
S'n'
tp4571
assg4542
(dp4572
g4545
(lp4573
(g4542
S'w18'
p4574
S's1'
S'p'
tp4575
a(g4542
g4574
S's9'
p4576
S'p'
tp4577
asg4553
(lp4578
(g4542
g4574
tp4579
asg4559
(lp4580
ssg4536
(dp4581
g4545
(lp4582
sg4553
(lp4583
(g4536
S'w1'
tp4584
asg4559
(lp4585
ssg4537
(dp4586
g4545
(lp4587
(g4537
S'w12'
p4588
S's9'
S'p'
tp4589
a(g4537
g4588
S's6'
S'p'
tp4590
asg4553
(lp4591
(g4537
g4588
tp4592
asg4559
(lp4593
ssg4538
(dp4594
g4545
(lp4595
(g4538
S'w8'
p4596
S's6'
S'p'
tp4597
asg4553
(lp4598
(g4538
g4596
tp4599
asg4559
(lp4600
ssg4539
(dp4601
g4545
(lp4602
sg4553
(lp4603
(g4539
S'w13'
p4604
tp4605
asg4559
(lp4606
(g4539
g4604
g4534
S'n'
tp4607
assg4540
(dp4608
g4545
(lp4609
(g4540
S'w6'
p4610
S's6'
p4611
S'p'
tp4612
asg4553
(lp4613
(g4540
g4610
tp4614
asg4559
(lp4615
ssg4541
(dp4616
g4545
(lp4617
(g4541
S'w16'
p4618
g4548
S'p'
tp4619
a(g4541
S'w4'
p4620
S's5'
p4621
S'p'
tp4622
asg4553
(lp4623
(g4541
g4618
tp4624
a(g4541
g4620
tp4625
asg4559
(lp4626
(g4541
g4618
g4534
S'n'
tp4627
ass(lp4628
(g4555
g4569
g4579
g4584
g4592
g4599
g4605
g4614
g4625
tp4629
a(g4569
g4584
g4592
g4599
g4605
g4614
g4625
(g4542
g4574
g4576
S'p'
t(g4534
g4547
g4548
S'p'
ttp4630
a(g4569
g4579
g4584
g4592
g4599
(g4540
g4610
g4611
S'p'
t(g4539
g4556
g4534
S'n'
t(g4534
g4547
g4541
S'n'
t(g4541
g4620
g4621
S'p'
ttp4631
aF-1
tp4632
a(((S's9'
p4633
S's8'
p4634
S's1'
p4635
S's7'
p4636
S's6'
p4637
S's5'
p4638
S's4'
p4639
S's12'
p4640
S's11'
p4641
t(S'w16'
S'w10'
S'w1'
S'w9'
S'w7'
S'w6'
S'w4'
S'w18'
S'w15'
tt(dp4642
g4633
(dp4643
S'p_paths'
p4644
(lp4645
(g4633
S'w16'
p4646
S's12'
p4647
S'p'
tp4648
asS'edges'
p4649
(lp4650
(g4633
g4646
tp4651
a(g4633
S'w10'
p4652
tp4653
asS'n_paths'
p4654
(lp4655
(g4633
g4646
g4639
S'n'
tp4656
a(g4633
g4652
g4634
S'n'
tp4657
assg4634
(dp4658
g4644
(lp4659
sg4649
(lp4660
(g4634
S'w10'
p4661
tp4662
asg4654
(lp4663
(g4634
g4661
g4633
S'n'
tp4664
assg4640
(dp4665
g4644
(lp4666
(g4640
S'w18'
p4667
S's1'
S'p'
tp4668
a(g4640
g4667
S's9'
p4669
S'p'
tp4670
asg4649
(lp4671
(g4640
g4667
tp4672
asg4654
(lp4673
ssg4635
(dp4674
g4644
(lp4675
sg4649
(lp4676
(g4635
S'w1'
tp4677
asg4654
(lp4678
ssg4636
(dp4679
g4644
(lp4680
(g4636
S'w9'
p4681
S's8'
p4682
S'p'
tp4683
asg4649
(lp4684
(g4636
g4681
tp4685
asg4654
(lp4686
ssg4637
(dp4687
g4644
(lp4688
(g4637
S'w7'
p4689
S's7'
p4690
S'p'
tp4691
asg4649
(lp4692
(g4637
g4689
tp4693
asg4654
(lp4694
ssg4638
(dp4695
g4644
(lp4696
(g4638
S'w6'
p4697
S's6'
p4698
S'p'
tp4699
asg4649
(lp4700
(g4638
g4697
tp4701
asg4654
(lp4702
ssg4639
(dp4703
g4644
(lp4704
(g4639
S'w16'
p4705
g4647
S'p'
tp4706
a(g4639
S'w4'
p4707
S's5'
p4708
S'p'
tp4709
asg4649
(lp4710
(g4639
g4705
tp4711
a(g4639
g4707
tp4712
asg4654
(lp4713
(g4639
g4705
g4633
S'n'
tp4714
assg4641
(dp4715
g4644
(lp4716
(g4641
S'w15'
p4717
S's9'
S'p'
tp4718
a(g4641
g4717
S's4'
S'p'
tp4719
asg4649
(lp4720
(g4641
g4717
tp4721
asg4654
(lp4722
ss(lp4723
(g4651
g4662
g4672
g4677
g4685
g4693
g4701
g4712
g4721
tp4724
a(g4672
g4677
g4721
(g4634
g4652
g4633
S'n'
t(g4633
g4646
g4639
S'n'
t(g4639
g4707
g4708
S'p'
t(g4638
g4697
g4698
S'p'
t(g4637
g4689
g4690
S'p'
t(g4636
g4681
g4682
S'p'
ttp4725
a(g4662
g4677
g4685
g4693
g4701
g4712
g4721
(g4633
g4646
g4647
S'p'
t(g4640
g4667
g4669
S'p'
ttp4726
aF-1
tp4727
a(((S's9'
p4728
S's8'
p4729
S's1'
p4730
S's7'
p4731
S's6'
p4732
S's5'
p4733
S's4'
p4734
S's12'
p4735
S's11'
p4736
t(S'w16'
S'w10'
S'w1'
S'w9'
S'w7'
S'w6'
S'w4'
S'w18'
S'w14'
tt(dp4737
g4728
(dp4738
S'p_paths'
p4739
(lp4740
(g4728
S'w16'
p4741
S's12'
p4742
S'p'
tp4743
asS'edges'
p4744
(lp4745
(g4728
g4741
tp4746
a(g4728
S'w10'
p4747
tp4748
asS'n_paths'
p4749
(lp4750
(g4728
g4741
g4734
S'n'
tp4751
a(g4728
g4747
g4729
S'n'
tp4752
assg4729
(dp4753
g4739
(lp4754
sg4744
(lp4755
(g4729
S'w10'
p4756
tp4757
asg4749
(lp4758
(g4729
g4756
g4728
S'n'
tp4759
assg4735
(dp4760
g4739
(lp4761
(g4735
S'w18'
p4762
S's1'
S'p'
tp4763
a(g4735
g4762
S's9'
p4764
S'p'
tp4765
asg4744
(lp4766
(g4735
g4762
tp4767
asg4749
(lp4768
ssg4730
(dp4769
g4739
(lp4770
sg4744
(lp4771
(g4730
S'w1'
tp4772
asg4749
(lp4773
ssg4731
(dp4774
g4739
(lp4775
(g4731
S'w9'
p4776
S's8'
p4777
S'p'
tp4778
asg4744
(lp4779
(g4731
g4776
tp4780
asg4749
(lp4781
ssg4732
(dp4782
g4739
(lp4783
(g4732
S'w7'
p4784
S's7'
p4785
S'p'
tp4786
asg4744
(lp4787
(g4732
g4784
tp4788
asg4749
(lp4789
ssg4733
(dp4790
g4739
(lp4791
(g4733
S'w6'
p4792
S's6'
p4793
S'p'
tp4794
asg4744
(lp4795
(g4733
g4792
tp4796
asg4749
(lp4797
ssg4734
(dp4798
g4739
(lp4799
(g4734
S'w16'
p4800
g4742
S'p'
tp4801
a(g4734
S'w4'
p4802
S's5'
p4803
S'p'
tp4804
asg4744
(lp4805
(g4734
g4800
tp4806
a(g4734
g4802
tp4807
asg4749
(lp4808
(g4734
g4800
g4728
S'n'
tp4809
assg4736
(dp4810
g4739
(lp4811
(g4736
S'w14'
p4812
S's9'
S'p'
tp4813
a(g4736
g4812
S's6'
S'p'
tp4814
asg4744
(lp4815
(g4736
g4812
tp4816
asg4749
(lp4817
ss(lp4818
(g4746
g4757
g4767
g4772
g4780
g4788
g4796
g4807
g4816
tp4819
a(g4767
g4772
g4816
(g4729
g4747
g4728
S'n'
t(g4728
g4741
g4734
S'n'
t(g4734
g4802
g4803
S'p'
t(g4733
g4792
g4793
S'p'
t(g4732
g4784
g4785
S'p'
t(g4731
g4776
g4777
S'p'
ttp4820
a(g4757
g4772
g4780
g4788
g4796
g4807
g4816
(g4728
g4741
g4742
S'p'
t(g4735
g4762
g4764
S'p'
ttp4821
aF-1
tp4822
a(((S's9'
p4823
S's8'
p4824
S's1'
p4825
S's7'
p4826
S's6'
p4827
S's5'
p4828
S's4'
p4829
S's12'
p4830
S's11'
p4831
t(S'w13'
S'w10'
S'w1'
S'w9'
S'w7'
S'w6'
S'w16'
S'w18'
S'w15'
tt(dp4832
g4823
(dp4833
S'p_paths'
p4834
(lp4835
(g4823
S'w16'
p4836
S's12'
p4837
S'p'
tp4838
a(g4823
S'w13'
p4839
S's11'
p4840
S'p'
tp4841
asS'edges'
p4842
(lp4843
(g4823
g4836
tp4844
a(g4823
g4839
tp4845
a(g4823
S'w10'
p4846
tp4847
asS'n_paths'
p4848
(lp4849
(g4823
g4836
g4829
S'n'
tp4850
a(g4823
g4839
g4827
S'n'
tp4851
a(g4823
g4846
g4824
S'n'
tp4852
assg4824
(dp4853
g4834
(lp4854
sg4842
(lp4855
(g4824
S'w10'
p4856
tp4857
asg4848
(lp4858
(g4824
g4856
g4823
S'n'
tp4859
assg4830
(dp4860
g4834
(lp4861
(g4830
S'w18'
p4862
S's1'
S'p'
tp4863
a(g4830
g4862
S's9'
p4864
S'p'
tp4865
asg4842
(lp4866
(g4830
g4862
tp4867
asg4848
(lp4868
ssg4825
(dp4869
g4834
(lp4870
sg4842
(lp4871
(g4825
S'w1'
tp4872
asg4848
(lp4873
ssg4826
(dp4874
g4834
(lp4875
(g4826
S'w9'
p4876
S's8'
p4877
S'p'
tp4878
asg4842
(lp4879
(g4826
g4876
tp4880
asg4848
(lp4881
ssg4827
(dp4882
g4834
(lp4883
(g4827
S'w7'
p4884
S's7'
p4885
S'p'
tp4886
a(g4827
S'w13'
p4887
g4840
S'p'
tp4888
asg4842
(lp4889
(g4827
g4884
tp4890
a(g4827
g4887
tp4891
asg4848
(lp4892
(g4827
g4887
g4823
S'n'
tp4893
assg4828
(dp4894
g4834
(lp4895
(g4828
S'w6'
p4896
S's6'
S'p'
tp4897
asg4842
(lp4898
(g4828
g4896
tp4899
asg4848
(lp4900
ssg4829
(dp4901
g4834
(lp4902
(g4829
S'w16'
p4903
g4837
S'p'
tp4904
asg4842
(lp4905
(g4829
g4903
tp4906
asg4848
(lp4907
(g4829
g4903
g4823
S'n'
tp4908
assg4831
(dp4909
g4834
(lp4910
(g4831
S'w15'
p4911
S's9'
p4912
S'p'
tp4913
a(g4831
g4911
S's4'
p4914
S'p'
tp4915
asg4842
(lp4916
(g4831
g4911
tp4917
asg4848
(lp4918
ss(lp4919
(g4845
g4857
g4867
g4872
g4880
g4890
g4899
g4906
g4917
tp4920
a(g4857
g4872
g4880
g4890
g4899
(g4831
g4911
g4914
S'p'
tp4921
(g4829
g4903
g4837
S'p'
t(g4830
g4862
g4864
S'p'
t(g4823
g4839
g4840
S'p'
tp4922
tp4923
a(g4857
g4867
g4872
g4880
g4890
g4899
g4921
(g4829
g4836
g4823
S'n'
tg4922
tp4924
a(g4857
g4867
g4872
g4880
g4890
g4899
g4906
(g4831
g4911
g4912
S'p'
tg4922
tp4925
a(g4867
g4872
g4899
g4906
g4917
(g4824
g4846
g4823
S'n'
t(g4823
g4839
g4827
S'n'
t(g4827
g4884
g4885
S'p'
t(g4826
g4876
g4877
S'p'
ttp4926
aF-1
tp4927
a(((S's9'
p4928
S's8'
p4929
S's1'
p4930
S's7'
p4931
S's6'
p4932
S's5'
p4933
S's4'
p4934
S's12'
p4935
S's11'
p4936
t(S'w13'
S'w10'
S'w1'
S'w9'
S'w7'
S'w5'
S'w16'
S'w18'
S'w15'
tt(dp4937
g4928
(dp4938
S'p_paths'
p4939
(lp4940
(g4928
S'w16'
p4941
S's12'
p4942
S'p'
tp4943
a(g4928
S'w13'
p4944
S's11'
p4945
S'p'
tp4946
asS'edges'
p4947
(lp4948
(g4928
g4941
tp4949
a(g4928
g4944
tp4950
a(g4928
S'w10'
p4951
tp4952
asS'n_paths'
p4953
(lp4954
(g4928
g4941
g4934
S'n'
tp4955
a(g4928
g4944
g4932
S'n'
tp4956
a(g4928
g4951
g4929
S'n'
tp4957
assg4929
(dp4958
g4939
(lp4959
sg4947
(lp4960
(g4929
S'w10'
p4961
tp4962
asg4953
(lp4963
(g4929
g4961
g4928
S'n'
tp4964
assg4935
(dp4965
g4939
(lp4966
(g4935
S'w18'
p4967
S's1'
S'p'
tp4968
a(g4935
g4967
S's9'
p4969
S'p'
tp4970
asg4947
(lp4971
(g4935
g4967
tp4972
asg4953
(lp4973
ssg4930
(dp4974
g4939
(lp4975
sg4947
(lp4976
(g4930
S'w1'
tp4977
asg4953
(lp4978
ssg4931
(dp4979
g4939
(lp4980
(g4931
S'w9'
p4981
S's8'
p4982
S'p'
tp4983
asg4947
(lp4984
(g4931
g4981
tp4985
asg4953
(lp4986
ssg4932
(dp4987
g4939
(lp4988
(g4932
S'w7'
p4989
S's7'
p4990
S'p'
tp4991
a(g4932
S'w13'
p4992
g4945
S'p'
tp4993
asg4947
(lp4994
(g4932
g4989
tp4995
a(g4932
g4992
tp4996
asg4953
(lp4997
(g4932
g4992
g4928
S'n'
tp4998
assg4933
(dp4999
g4939
(lp5000
(g4933
S'w5'
p5001
S's4'
S'p'
tp5002
asg4947
(lp5003
(g4933
g5001
tp5004
asg4953
(lp5005
ssg4934
(dp5006
g4939
(lp5007
(g4934
S'w16'
p5008
g4942
S'p'
tp5009
asg4947
(lp5010
(g4934
g5008
tp5011
asg4953
(lp5012
(g4934
g5008
g4928
S'n'
tp5013
assg4936
(dp5014
g4939
(lp5015
(g4936
S'w15'
p5016
S's9'
p5017
S'p'
tp5018
a(g4936
g5016
S's4'
p5019
S'p'
tp5020
asg4947
(lp5021
(g4936
g5016
tp5022
asg4953
(lp5023
ss(lp5024
(g4950
g4962
g4972
g4977
g4985
g4995
g5004
g5011
g5022
tp5025
a(g4962
g4972
g4977
g4985
g4995
g5004
(g4936
g5016
g5019
S'p'
tp5026
(g4934
g4941
g4928
S'n'
t(g4928
g4944
g4945
S'p'
tp5027
tp5028
a(g4962
g4972
g4977
g4985
g4995
g5004
g5011
(g4936
g5016
g5017
S'p'
tg5027
tp5029
a(g4962
g4977
g4985
g4995
g5004
(g4935
g4967
g4969
S'p'
tg5027
g5026
(g4934
g5008
g4942
S'p'
ttp5030
a(g4972
g4977
g5004
g5011
g5022
(g4929
g4951
g4928
S'n'
t(g4928
g4944
g4932
S'n'
t(g4932
g4989
g4990
S'p'
t(g4931
g4981
g4982
S'p'
ttp5031
aF-1
tp5032
a(((S's9'
p5033
S's3'
p5034
S's2'
p5035
S's1'
p5036
S's7'
p5037
S's6'
p5038
S's4'
p5039
S's12'
p5040
S's11'
p5041
t(S'w10'
S'w3'
S'w7'
S'w1'
S'w9'
S'w13'
S'w4'
S'w17'
S'w15'
tt(dp5042
g5033
(dp5043
S'p_paths'
p5044
(lp5045
(g5033
S'w13'
p5046
S's11'
p5047
S'p'
tp5048
asS'edges'
p5049
(lp5050
(g5033
g5046
tp5051
a(g5033
S'w10'
tp5052
asS'n_paths'
p5053
(lp5054
(g5033
g5046
g5038
S'n'
tp5055
assg5034
(dp5056
g5044
(lp5057
(g5034
S'w3'
p5058
S's2'
S'p'
tp5059
a(g5034
g5058
S's4'
S'p'
tp5060
asg5049
(lp5061
(g5034
g5058
tp5062
asg5053
(lp5063
ssg5035
(dp5064
g5044
(lp5065
(g5035
S'w7'
p5066
S's7'
p5067
S'p'
tp5068
a(g5035
S'w1'
p5069
S's3'
p5070
S'p'
tp5071
asg5049
(lp5072
(g5035
g5066
tp5073
a(g5035
S'w4'
p5074
tp5075
a(g5035
g5069
tp5076
asg5053
(lp5077
(g5035
g5066
g5038
S'n'
tp5078
a(g5035
g5074
g5039
S'n'
tp5079
a(g5035
g5069
g5036
S'n'
tp5080
assg5036
(dp5081
g5044
(lp5082
(g5036
S'w1'
p5083
g5070
S'p'
tp5084
asg5049
(lp5085
(g5036
g5083
tp5086
asg5053
(lp5087
(g5036
g5083
g5035
S'n'
tp5088
assg5037
(dp5089
g5044
(lp5090
(g5037
S'w9'
p5091
S's2'
p5092
S'p'
tp5093
asg5049
(lp5094
(g5037
g5091
tp5095
asg5053
(lp5096
ssg5038
(dp5097
g5044
(lp5098
(g5038
S'w7'
p5099
g5067
S'p'
tp5100
a(g5038
S'w13'
p5101
g5047
S'p'
tp5102
asg5049
(lp5103
(g5038
g5099
tp5104
a(g5038
g5101
tp5105
asg5053
(lp5106
(g5038
g5099
g5035
S'n'
tp5107
a(g5038
g5101
g5033
S'n'
tp5108
assg5039
(dp5109
g5044
(lp5110
sg5049
(lp5111
(g5039
S'w4'
p5112
tp5113
asg5053
(lp5114
(g5039
g5112
g5035
S'n'
tp5115
assg5040
(dp5116
g5044
(lp5117
(g5040
S'w17'
p5118
S's9'
S'p'
tp5119
a(g5040
g5118
S's4'
S'p'
tp5120
asg5049
(lp5121
(g5040
g5118
tp5122
asg5053
(lp5123
ssg5041
(dp5124
g5044
(lp5125
(g5041
S'w15'
p5126
S's9'
S'p'
tp5127
a(g5041
g5126
S's4'
p5128
S'p'
tp5129
asg5049
(lp5130
(g5041
g5126
tp5131
asg5053
(lp5132
ss(lp5133
(g5052
g5062
g5073
g5086
g5095
g5105
g5113
g5122
g5131
tp5134
a(g5052
g5062
g5086
g5105
g5113
g5122
g5131
(g5035
g5066
g5067
S'p'
t(g5037
g5091
g5092
S'p'
ttp5135
a(g5052
g5062
g5086
g5095
g5122
(g5039
g5074
g5035
S'n'
t(g5035
g5066
g5038
S'n'
t(g5038
g5101
g5047
S'p'
t(g5041
g5126
g5128
S'p'
ttp5136
aF-1
tp5137
a(((S's9'
p5138
S's3'
p5139
S's2'
p5140
S's1'
p5141
S's7'
p5142
S's6'
p5143
S's4'
p5144
S's12'
p5145
S's11'
p5146
t(S'w10'
S'w3'
S'w7'
S'w1'
S'w9'
S'w13'
S'w4'
S'w18'
S'w15'
tt(dp5147
g5138
(dp5148
S'p_paths'
p5149
(lp5150
(g5138
S'w13'
p5151
S's11'
p5152
S'p'
tp5153
asS'edges'
p5154
(lp5155
(g5138
g5151
tp5156
a(g5138
S'w10'
tp5157
asS'n_paths'
p5158
(lp5159
(g5138
g5151
g5143
S'n'
tp5160
assg5139
(dp5161
g5149
(lp5162
(g5139
S'w3'
p5163
S's2'
S'p'
tp5164
a(g5139
g5163
S's4'
S'p'
tp5165
asg5154
(lp5166
(g5139
g5163
tp5167
asg5158
(lp5168
ssg5140
(dp5169
g5149
(lp5170
(g5140
S'w7'
p5171
S's7'
p5172
S'p'
tp5173
a(g5140
S'w1'
p5174
S's3'
p5175
S'p'
tp5176
asg5154
(lp5177
(g5140
g5171
tp5178
a(g5140
S'w4'
p5179
tp5180
a(g5140
g5174
tp5181
asg5158
(lp5182
(g5140
g5171
g5143
S'n'
tp5183
a(g5140
g5179
g5144
S'n'
tp5184
a(g5140
g5174
g5141
S'n'
tp5185
assg5141
(dp5186
g5149
(lp5187
(g5141
S'w1'
p5188
g5175
S'p'
tp5189
asg5154
(lp5190
(g5141
g5188
tp5191
asg5158
(lp5192
(g5141
g5188
g5140
S'n'
tp5193
assg5142
(dp5194
g5149
(lp5195
(g5142
S'w9'
p5196
S's2'
p5197
S'p'
tp5198
asg5154
(lp5199
(g5142
g5196
tp5200
asg5158
(lp5201
ssg5143
(dp5202
g5149
(lp5203
(g5143
S'w7'
p5204
g5172
S'p'
tp5205
a(g5143
S'w13'
p5206
g5152
S'p'
tp5207
asg5154
(lp5208
(g5143
g5204
tp5209
a(g5143
g5206
tp5210
asg5158
(lp5211
(g5143
g5204
g5140
S'n'
tp5212
a(g5143
g5206
g5138
S'n'
tp5213
assg5144
(dp5214
g5149
(lp5215
sg5154
(lp5216
(g5144
S'w4'
p5217
tp5218
asg5158
(lp5219
(g5144
g5217
g5140
S'n'
tp5220
assg5145
(dp5221
g5149
(lp5222
(g5145
S'w18'
p5223
S's1'
S'p'
tp5224
a(g5145
g5223
S's9'
S'p'
tp5225
asg5154
(lp5226
(g5145
g5223
tp5227
asg5158
(lp5228
ssg5146
(dp5229
g5149
(lp5230
(g5146
S'w15'
p5231
S's9'
S'p'
tp5232
a(g5146
g5231
S's4'
p5233
S'p'
tp5234
asg5154
(lp5235
(g5146
g5231
tp5236
asg5158
(lp5237
ss(lp5238
(g5157
g5167
g5178
g5191
g5200
g5210
g5218
g5227
g5236
tp5239
a(g5157
g5167
g5191
g5210
g5218
g5227
g5236
(g5140
g5171
g5172
S'p'
t(g5142
g5196
g5197
S'p'
ttp5240
a(g5157
g5167
g5191
g5200
g5227
(g5144
g5179
g5140
S'n'
t(g5140
g5171
g5143
S'n'
t(g5143
g5206
g5152
S'p'
t(g5146
g5231
g5233
S'p'
ttp5241
aF-1
tp5242
a(((S's9'
p5243
S's2'
p5244
S's1'
p5245
S's10'
p5246
S's7'
p5247
S's6'
p5248
S's5'
p5249
S's4'
p5250
S's12'
p5251
t(S'w10'
S'w4'
S'w1'
S'w12'
S'w9'
S'w13'
S'w6'
S'w16'
S'w18'
tt(dp5252
g5243
(dp5253
S'p_paths'
p5254
(lp5255
(g5243
S'w16'
p5256
S's12'
p5257
S'p'
tp5258
a(g5243
S'w10'
p5259
S's10'
p5260
S'p'
tp5261
asS'edges'
p5262
(lp5263
(g5243
g5256
tp5264
a(g5243
S'w13'
p5265
tp5266
a(g5243
g5259
tp5267
asS'n_paths'
p5268
(lp5269
(g5243
g5256
g5250
S'n'
tp5270
a(g5243
g5265
g5248
S'n'
tp5271
assg5244
(dp5272
g5254
(lp5273
(g5244
S'w4'
p5274
S's5'
p5275
S'p'
tp5276
asg5262
(lp5277
(g5244
g5274
tp5278
a(g5244
S'w1'
p5279
tp5280
asg5268
(lp5281
(g5244
g5274
g5250
S'n'
tp5282
a(g5244
g5279
g5245
S'n'
tp5283
assg5245
(dp5284
g5254
(lp5285
sg5262
(lp5286
(g5245
S'w1'
p5287
tp5288
asg5268
(lp5289
(g5245
g5287
g5244
S'n'
tp5290
assg5246
(dp5291
g5254
(lp5292
(g5246
S'w12'
p5293
S's9'
p5294
S'p'
tp5295
a(g5246
g5293
S's6'
p5296
S'p'
tp5297
asg5262
(lp5298
(g5246
g5293
tp5299
asg5268
(lp5300
ssg5247
(dp5301
g5254
(lp5302
(g5247
S'w9'
p5303
S's2'
S'p'
tp5304
asg5262
(lp5305
(g5247
g5303
tp5306
asg5268
(lp5307
ssg5248
(dp5308
g5254
(lp5309
sg5262
(lp5310
(g5248
S'w13'
p5311
tp5312
asg5268
(lp5313
(g5248
g5311
g5243
S'n'
tp5314
assg5249
(dp5315
g5254
(lp5316
(g5249
S'w6'
p5317
S's2'
p5318
S'p'
tp5319
a(g5249
g5317
S's6'
S'p'
tp5320
asg5262
(lp5321
(g5249
g5317
tp5322
asg5268
(lp5323
ssg5250
(dp5324
g5254
(lp5325
(g5250
S'w16'
p5326
g5257
S'p'
tp5327
a(g5250
S'w4'
p5328
g5275
S'p'
tp5329
asg5262
(lp5330
(g5250
g5326
tp5331
a(g5250
g5328
tp5332
asg5268
(lp5333
(g5250
g5326
g5243
S'n'
tp5334
a(g5250
g5328
g5244
S'n'
tp5335
assg5251
(dp5336
g5254
(lp5337
(g5251
S'w18'
p5338
S's1'
p5339
S'p'
tp5340
a(g5251
g5338
S's9'
S'p'
tp5341
asg5262
(lp5342
(g5251
g5338
tp5343
asg5268
(lp5344
ss(lp5345
(g5267
g5278
g5288
g5299
g5306
g5312
g5322
g5331
g5343
tp5346
a(g5267
g5299
g5306
g5312
g5322
(g5245
g5279
g5244
S'n'
tp5347
(g5244
g5274
g5250
S'n'
tp5348
(g5250
g5326
g5257
S'p'
tp5349
(g5251
g5338
g5339
S'p'
tp5350
tp5351
a(g5267
g5288
g5299
g5306
g5312
g5331
g5343
(g5249
g5317
g5318
S'p'
tp5352
(g5244
g5274
g5275
S'p'
tp5353
tp5354
a(g5278
g5288
g5306
g5322
g5331
g5343
(g5248
g5265
g5243
S'n'
tp5355
(g5243
g5259
g5260
S'p'
tp5356
(g5246
g5293
g5296
S'p'
tp5357
tp5358
a(g5278
g5288
g5306
g5312
g5322
g5331
g5343
g5356
(g5246
g5293
g5294
S'p'
tp5359
tp5360
a(g5306
g5322
g5347
g5348
g5349
g5350
g5355
g5356
g5357
tp5361
a(g5306
g5312
g5322
g5347
g5348
g5349
g5350
g5356
g5359
tp5362
a(g5288
g5306
g5331
g5343
g5352
g5353
g5355
g5356
g5357
tp5363
a(g5288
g5306
g5312
g5331
g5343
g5352
g5353
g5356
g5359
tp5364
aF-1
tp5365
a(((S's9'
p5366
S's2'
p5367
S's1'
p5368
S's10'
p5369
S's7'
p5370
S's6'
p5371
S's5'
p5372
S's4'
p5373
S's12'
p5374
t(S'w10'
S'w4'
S'w1'
S'w12'
S'w8'
S'w13'
S'w6'
S'w16'
S'w18'
tt(dp5375
g5366
(dp5376
S'p_paths'
p5377
(lp5378
(g5366
S'w16'
p5379
S's12'
p5380
S'p'
tp5381
a(g5366
S'w10'
p5382
S's10'
p5383
S'p'
tp5384
asS'edges'
p5385
(lp5386
(g5366
g5379
tp5387
a(g5366
S'w13'
p5388
tp5389
a(g5366
g5382
tp5390
asS'n_paths'
p5391
(lp5392
(g5366
g5379
g5373
S'n'
tp5393
a(g5366
g5388
g5371
S'n'
tp5394
assg5367
(dp5395
g5377
(lp5396
(g5367
S'w4'
p5397
S's5'
p5398
S'p'
tp5399
asg5385
(lp5400
(g5367
g5397
tp5401
a(g5367
S'w1'
p5402
tp5403
asg5391
(lp5404
(g5367
g5397
g5373
S'n'
tp5405
a(g5367
g5402
g5368
S'n'
tp5406
assg5368
(dp5407
g5377
(lp5408
sg5385
(lp5409
(g5368
S'w1'
p5410
tp5411
asg5391
(lp5412
(g5368
g5410
g5367
S'n'
tp5413
assg5369
(dp5414
g5377
(lp5415
(g5369
S'w12'
p5416
S's9'
p5417
S'p'
tp5418
a(g5369
g5416
S's6'
p5419
S'p'
tp5420
asg5385
(lp5421
(g5369
g5416
tp5422
asg5391
(lp5423
ssg5370
(dp5424
g5377
(lp5425
(g5370
S'w8'
p5426
S's2'
S'p'
tp5427
a(g5370
g5426
S's6'
S'p'
tp5428
asg5385
(lp5429
(g5370
g5426
tp5430
asg5391
(lp5431
ssg5371
(dp5432
g5377
(lp5433
sg5385
(lp5434
(g5371
S'w13'
p5435
tp5436
asg5391
(lp5437
(g5371
g5435
g5366
S'n'
tp5438
assg5372
(dp5439
g5377
(lp5440
(g5372
S'w6'
p5441
S's2'
p5442
S'p'
tp5443
a(g5372
g5441
S's6'
S'p'
tp5444
asg5385
(lp5445
(g5372
g5441
tp5446
asg5391
(lp5447
ssg5373
(dp5448
g5377
(lp5449
(g5373
S'w16'
p5450
g5380
S'p'
tp5451
a(g5373
S'w4'
p5452
g5398
S'p'
tp5453
asg5385
(lp5454
(g5373
g5450
tp5455
a(g5373
g5452
tp5456
asg5391
(lp5457
(g5373
g5450
g5366
S'n'
tp5458
a(g5373
g5452
g5367
S'n'
tp5459
assg5374
(dp5460
g5377
(lp5461
(g5374
S'w18'
p5462
S's1'
p5463
S'p'
tp5464
a(g5374
g5462
S's9'
S'p'
tp5465
asg5385
(lp5466
(g5374
g5462
tp5467
asg5391
(lp5468
ss(lp5469
(g5390
g5401
g5411
g5422
g5430
g5436
g5446
g5455
g5467
tp5470
a(g5390
g5422
g5430
g5436
g5446
(g5368
g5402
g5367
S'n'
tp5471
(g5367
g5397
g5373
S'n'
tp5472
(g5373
g5450
g5380
S'p'
tp5473
(g5374
g5462
g5463
S'p'
tp5474
tp5475
a(g5390
g5411
g5422
g5430
g5436
g5455
g5467
(g5372
g5441
g5442
S'p'
tp5476
(g5367
g5397
g5398
S'p'
tp5477
tp5478
a(g5401
g5411
g5430
g5446
g5455
g5467
(g5371
g5388
g5366
S'n'
tp5479
(g5366
g5382
g5383
S'p'
tp5480
(g5369
g5416
g5419
S'p'
tp5481
tp5482
a(g5401
g5411
g5430
g5436
g5446
g5455
g5467
g5480
(g5369
g5416
g5417
S'p'
tp5483
tp5484
a(g5430
g5446
g5471
g5472
g5473
g5474
g5479
g5480
g5481
tp5485
a(g5430
g5436
g5446
g5471
g5472
g5473
g5474
g5480
g5483
tp5486
a(g5411
g5430
g5455
g5467
g5476
g5477
g5479
g5480
g5481
tp5487
a(g5411
g5430
g5436
g5455
g5467
g5476
g5477
g5480
g5483
tp5488
aF-1
tp5489
a(((S's9'
p5490
S's2'
p5491
S's1'
p5492
S's7'
p5493
S's6'
p5494
S's5'
p5495
S's4'
p5496
S's12'
p5497
S's11'
p5498
t(S'w10'
S'w7'
S'w1'
S'w9'
S'w13'
S'w6'
S'w16'
S'w18'
S'w15'
tt(dp5499
g5490
(dp5500
S'p_paths'
p5501
(lp5502
(g5490
S'w16'
p5503
S's12'
p5504
S'p'
tp5505
a(g5490
S'w13'
p5506
S's11'
p5507
S'p'
tp5508
asS'edges'
p5509
(lp5510
(g5490
g5503
tp5511
a(g5490
g5506
tp5512
a(g5490
S'w10'
tp5513
asS'n_paths'
p5514
(lp5515
(g5490
g5503
g5496
S'n'
tp5516
a(g5490
g5506
g5494
S'n'
tp5517
assg5491
(dp5518
g5501
(lp5519
(g5491
S'w7'
p5520
S's7'
p5521
S'p'
tp5522
asg5509
(lp5523
(g5491
g5520
tp5524
a(g5491
S'w1'
p5525
tp5526
asg5514
(lp5527
(g5491
g5520
g5494
S'n'
tp5528
a(g5491
g5525
g5492
S'n'
tp5529
assg5492
(dp5530
g5501
(lp5531
sg5509
(lp5532
(g5492
S'w1'
p5533
tp5534
asg5514
(lp5535
(g5492
g5533
g5491
S'n'
tp5536
assg5493
(dp5537
g5501
(lp5538
(g5493
S'w9'
p5539
S's2'
p5540
S'p'
tp5541
asg5509
(lp5542
(g5493
g5539
tp5543
asg5514
(lp5544
ssg5494
(dp5545
g5501
(lp5546
(g5494
S'w7'
p5547
g5521
S'p'
tp5548
a(g5494
S'w13'
p5549
g5507
S'p'
tp5550
asg5509
(lp5551
(g5494
g5547
tp5552
a(g5494
g5549
tp5553
asg5514
(lp5554
(g5494
g5547
g5491
S'n'
tp5555
a(g5494
g5549
g5490
S'n'
tp5556
assg5495
(dp5557
g5501
(lp5558
(g5495
S'w6'
p5559
S's2'
S'p'
tp5560
a(g5495
g5559
S's6'
S'p'
tp5561
asg5509
(lp5562
(g5495
g5559
tp5563
asg5514
(lp5564
ssg5496
(dp5565
g5501
(lp5566
(g5496
S'w16'
p5567
g5504
S'p'
tp5568
asg5509
(lp5569
(g5496
g5567
tp5570
asg5514
(lp5571
(g5496
g5567
g5490
S'n'
tp5572
assg5497
(dp5573
g5501
(lp5574
(g5497
S'w18'
p5575
S's1'
p5576
S'p'
tp5577
a(g5497
g5575
S's9'
S'p'
tp5578
asg5509
(lp5579
(g5497
g5575
tp5580
asg5514
(lp5581
ssg5498
(dp5582
g5501
(lp5583
(g5498
S'w15'
p5584
S's9'
S'p'
tp5585
a(g5498
g5584
S's4'
p5586
S'p'
tp5587
asg5509
(lp5588
(g5498
g5584
tp5589
asg5514
(lp5590
ss(lp5591
(g5513
g5524
g5534
g5543
g5553
g5563
g5570
g5580
g5589
tp5592
a(g5513
g5543
g5563
(g5492
g5525
g5491
S'n'
t(g5491
g5520
g5494
S'n'
t(g5494
g5549
g5507
S'p'
t(g5498
g5584
g5586
S'p'
t(g5496
g5567
g5504
S'p'
t(g5497
g5575
g5576
S'p'
ttp5593
a(g5513
g5534
g5553
g5563
g5570
g5580
g5589
(g5491
g5520
g5521
S'p'
t(g5493
g5539
g5540
S'p'
ttp5594
aF-1
tp5595
a(((S's9'
p5596
S's2'
p5597
S's1'
p5598
S's7'
p5599
S's6'
p5600
S's5'
p5601
S's4'
p5602
S's12'
p5603
S's11'
p5604
t(S'w10'
S'w7'
S'w1'
S'w9'
S'w13'
S'w5'
S'w16'
S'w18'
S'w15'
tt(dp5605
g5596
(dp5606
S'p_paths'
p5607
(lp5608
(g5596
S'w16'
p5609
S's12'
p5610
S'p'
tp5611
a(g5596
S'w13'
p5612
S's11'
p5613
S'p'
tp5614
asS'edges'
p5615
(lp5616
(g5596
g5609
tp5617
a(g5596
g5612
tp5618
a(g5596
S'w10'
tp5619
asS'n_paths'
p5620
(lp5621
(g5596
g5609
g5602
S'n'
tp5622
a(g5596
g5612
g5600
S'n'
tp5623
assg5597
(dp5624
g5607
(lp5625
(g5597
S'w7'
p5626
S's7'
p5627
S'p'
tp5628
asg5615
(lp5629
(g5597
g5626
tp5630
a(g5597
S'w1'
p5631
tp5632
asg5620
(lp5633
(g5597
g5626
g5600
S'n'
tp5634
a(g5597
g5631
g5598
S'n'
tp5635
assg5598
(dp5636
g5607
(lp5637
sg5615
(lp5638
(g5598
S'w1'
p5639
tp5640
asg5620
(lp5641
(g5598
g5639
g5597
S'n'
tp5642
assg5599
(dp5643
g5607
(lp5644
(g5599
S'w9'
p5645
S's2'
p5646
S'p'
tp5647
asg5615
(lp5648
(g5599
g5645
tp5649
asg5620
(lp5650
ssg5600
(dp5651
g5607
(lp5652
(g5600
S'w7'
p5653
g5627
S'p'
tp5654
a(g5600
S'w13'
p5655
g5613
S'p'
tp5656
asg5615
(lp5657
(g5600
g5653
tp5658
a(g5600
g5655
tp5659
asg5620
(lp5660
(g5600
g5653
g5597
S'n'
tp5661
a(g5600
g5655
g5596
S'n'
tp5662
assg5601
(dp5663
g5607
(lp5664
(g5601
S'w5'
p5665
S's2'
S'p'
tp5666
a(g5601
g5665
S's4'
S'p'
tp5667
asg5615
(lp5668
(g5601
g5665
tp5669
asg5620
(lp5670
ssg5602
(dp5671
g5607
(lp5672
(g5602
S'w16'
p5673
g5610
S'p'
tp5674
asg5615
(lp5675
(g5602
g5673
tp5676
asg5620
(lp5677
(g5602
g5673
g5596
S'n'
tp5678
assg5603
(dp5679
g5607
(lp5680
(g5603
S'w18'
p5681
S's1'
p5682
S'p'
tp5683
a(g5603
g5681
S's9'
S'p'
tp5684
asg5615
(lp5685
(g5603
g5681
tp5686
asg5620
(lp5687
ssg5604
(dp5688
g5607
(lp5689
(g5604
S'w15'
p5690
S's9'
S'p'
tp5691
a(g5604
g5690
S's4'
p5692
S'p'
tp5693
asg5615
(lp5694
(g5604
g5690
tp5695
asg5620
(lp5696
ss(lp5697
(g5619
g5630
g5640
g5649
g5659
g5669
g5676
g5686
g5695
tp5698
a(g5619
g5649
g5669
(g5598
g5631
g5597
S'n'
t(g5597
g5626
g5600
S'n'
t(g5600
g5655
g5613
S'p'
t(g5604
g5690
g5692
S'p'
t(g5602
g5673
g5610
S'p'
t(g5603
g5681
g5682
S'p'
ttp5699
a(g5619
g5640
g5659
g5669
g5676
g5686
g5695
(g5597
g5626
g5627
S'p'
t(g5599
g5645
g5646
S'p'
ttp5700
aF-1
tp5701
a(((S's9'
p5702
S's2'
p5703
S's1'
p5704
S's7'
p5705
S's6'
p5706
S's5'
p5707
S's4'
p5708
S's12'
p5709
S's11'
p5710
t(S'w10'
S'w4'
S'w1'
S'w9'
S'w7'
S'w6'
S'w16'
S'w18'
S'w15'
tt(dp5711
g5702
(dp5712
S'p_paths'
p5713
(lp5714
(g5702
S'w16'
p5715
S's12'
p5716
S'p'
tp5717
asS'edges'
p5718
(lp5719
(g5702
g5715
tp5720
a(g5702
S'w10'
tp5721
asS'n_paths'
p5722
(lp5723
(g5702
g5715
g5708
S'n'
tp5724
assg5703
(dp5725
g5713
(lp5726
(g5703
S'w7'
p5727
S's7'
p5728
S'p'
tp5729
a(g5703
S'w4'
p5730
S's5'
p5731
S'p'
tp5732
asg5718
(lp5733
(g5703
g5727
tp5734
a(g5703
g5730
tp5735
a(g5703
S'w1'
p5736
tp5737
asg5722
(lp5738
(g5703
g5727
g5706
S'n'
tp5739
a(g5703
g5730
g5708
S'n'
tp5740
a(g5703
g5736
g5704
S'n'
tp5741
assg5704
(dp5742
g5713
(lp5743
sg5718
(lp5744
(g5704
S'w1'
p5745
tp5746
asg5722
(lp5747
(g5704
g5745
g5703
S'n'
tp5748
assg5705
(dp5749
g5713
(lp5750
(g5705
S'w9'
p5751
S's2'
p5752
S'p'
tp5753
asg5718
(lp5754
(g5705
g5751
tp5755
asg5722
(lp5756
ssg5706
(dp5757
g5713
(lp5758
(g5706
S'w7'
p5759
g5728
S'p'
tp5760
asg5718
(lp5761
(g5706
g5759
tp5762
asg5722
(lp5763
(g5706
g5759
g5703
S'n'
tp5764
assg5707
(dp5765
g5713
(lp5766
(g5707
S'w6'
p5767
S's2'
p5768
S'p'
tp5769
a(g5707
g5767
S's6'
p5770
S'p'
tp5771
asg5718
(lp5772
(g5707
g5767
tp5773
asg5722
(lp5774
ssg5708
(dp5775
g5713
(lp5776
(g5708
S'w16'
p5777
g5716
S'p'
tp5778
a(g5708
S'w4'
p5779
g5731
S'p'
tp5780
asg5718
(lp5781
(g5708
g5777
tp5782
a(g5708
g5779
tp5783
asg5722
(lp5784
(g5708
g5777
g5702
S'n'
tp5785
a(g5708
g5779
g5703
S'n'
tp5786
assg5709
(dp5787
g5713
(lp5788
(g5709
S'w18'
p5789
S's1'
p5790
S'p'
tp5791
a(g5709
g5789
S's9'
S'p'
tp5792
asg5718
(lp5793
(g5709
g5789
tp5794
asg5722
(lp5795
ssg5710
(dp5796
g5713
(lp5797
(g5710
S'w15'
p5798
S's9'
S'p'
tp5799
a(g5710
g5798
S's4'
S'p'
tp5800
asg5718
(lp5801
(g5710
g5798
tp5802
asg5722
(lp5803
ss(lp5804
(g5721
g5735
g5746
g5755
g5762
g5773
g5782
g5794
g5802
tp5805
a(g5721
g5755
g5762
g5773
g5802
(g5704
g5736
g5703
S'n'
t(g5703
g5730
g5708
S'n'
t(g5708
g5777
g5716
S'p'
t(g5709
g5789
g5790
S'p'
ttp5806
a(g5721
g5746
g5755
g5762
g5782
g5794
g5802
(g5707
g5767
g5768
S'p'
t(g5703
g5730
g5731
S'p'
tp5807
tp5808
a(g5721
g5746
g5755
g5782
g5794
g5802
(g5706
g5727
g5703
S'n'
tg5807
(g5707
g5767
g5770
S'p'
tp5809
tp5810
a(g5721
g5746
g5782
g5794
g5802
(g5706
g5759
g5728
S'p'
t(g5705
g5751
g5752
S'p'
tg5807
g5809
tp5811
aF-1
tp5812
a(((S's9'
p5813
S's2'
p5814
S's1'
p5815
S's7'
p5816
S's6'
p5817
S's5'
p5818
S's4'
p5819
S's12'
p5820
S's11'
p5821
t(S'w10'
S'w4'
S'w1'
S'w9'
S'w7'
S'w6'
S'w16'
S'w18'
S'w14'
tt(dp5822
g5813
(dp5823
S'p_paths'
p5824
(lp5825
(g5813
S'w16'
p5826
S's12'
p5827
S'p'
tp5828
asS'edges'
p5829
(lp5830
(g5813
g5826
tp5831
a(g5813
S'w10'
tp5832
asS'n_paths'
p5833
(lp5834
(g5813
g5826
g5819
S'n'
tp5835
assg5814
(dp5836
g5824
(lp5837
(g5814
S'w7'
p5838
S's7'
p5839
S'p'
tp5840
a(g5814
S'w4'
p5841
S's5'
p5842
S'p'
tp5843
asg5829
(lp5844
(g5814
g5838
tp5845
a(g5814
g5841
tp5846
a(g5814
S'w1'
p5847
tp5848
asg5833
(lp5849
(g5814
g5838
g5817
S'n'
tp5850
a(g5814
g5841
g5819
S'n'
tp5851
a(g5814
g5847
g5815
S'n'
tp5852
assg5815
(dp5853
g5824
(lp5854
sg5829
(lp5855
(g5815
S'w1'
p5856
tp5857
asg5833
(lp5858
(g5815
g5856
g5814
S'n'
tp5859
assg5816
(dp5860
g5824
(lp5861
(g5816
S'w9'
p5862
S's2'
p5863
S'p'
tp5864
asg5829
(lp5865
(g5816
g5862
tp5866
asg5833
(lp5867
ssg5817
(dp5868
g5824
(lp5869
(g5817
S'w7'
p5870
g5839
S'p'
tp5871
asg5829
(lp5872
(g5817
g5870
tp5873
asg5833
(lp5874
(g5817
g5870
g5814
S'n'
tp5875
assg5818
(dp5876
g5824
(lp5877
(g5818
S'w6'
p5878
S's2'
p5879
S'p'
tp5880
a(g5818
g5878
S's6'
p5881
S'p'
tp5882
asg5829
(lp5883
(g5818
g5878
tp5884
asg5833
(lp5885
ssg5819
(dp5886
g5824
(lp5887
(g5819
S'w16'
p5888
g5827
S'p'
tp5889
a(g5819
S'w4'
p5890
g5842
S'p'
tp5891
asg5829
(lp5892
(g5819
g5888
tp5893
a(g5819
g5890
tp5894
asg5833
(lp5895
(g5819
g5888
g5813
S'n'
tp5896
a(g5819
g5890
g5814
S'n'
tp5897
assg5820
(dp5898
g5824
(lp5899
(g5820
S'w18'
p5900
S's1'
p5901
S'p'
tp5902
a(g5820
g5900
S's9'
S'p'
tp5903
asg5829
(lp5904
(g5820
g5900
tp5905
asg5833
(lp5906
ssg5821
(dp5907
g5824
(lp5908
(g5821
S'w14'
p5909
S's9'
S'p'
tp5910
a(g5821
g5909
S's6'
S'p'
tp5911
asg5829
(lp5912
(g5821
g5909
tp5913
asg5833
(lp5914
ss(lp5915
(g5832
g5846
g5857
g5866
g5873
g5884
g5893
g5905
g5913
tp5916
a(g5832
g5866
g5873
g5884
g5913
(g5815
g5847
g5814
S'n'
t(g5814
g5841
g5819
S'n'
t(g5819
g5888
g5827
S'p'
t(g5820
g5900
g5901
S'p'
ttp5917
a(g5832
g5857
g5866
g5873
g5893
g5905
g5913
(g5818
g5878
g5879
S'p'
t(g5814
g5841
g5842
S'p'
tp5918
tp5919
a(g5832
g5857
g5866
g5893
g5905
g5913
(g5817
g5838
g5814
S'n'
tg5918
(g5818
g5878
g5881
S'p'
tp5920
tp5921
a(g5832
g5857
g5893
g5905
g5913
(g5817
g5870
g5839
S'p'
t(g5816
g5862
g5863
S'p'
tg5918
g5920
tp5922
aF-1
tp5923
a(((S's8'
p5924
S's3'
p5925
S's2'
p5926
S's1'
p5927
S's7'
p5928
S's6'
p5929
S's4'
p5930
S's12'
p5931
S's11'
p5932
t(S'w10'
S'w3'
S'w7'
S'w1'
S'w9'
S'w13'
S'w4'
S'w17'
S'w15'
tt(dp5933
g5924
(dp5934
S'p_paths'
p5935
(lp5936
sS'edges'
p5937
(lp5938
(g5924
S'w10'
tp5939
asS'n_paths'
p5940
(lp5941
ssg5925
(dp5942
g5935
(lp5943
(g5925
S'w3'
p5944
S's2'
S'p'
tp5945
a(g5925
g5944
S's4'
S'p'
tp5946
asg5937
(lp5947
(g5925
g5944
tp5948
asg5940
(lp5949
ssg5926
(dp5950
g5935
(lp5951
(g5926
S'w7'
p5952
S's7'
p5953
S'p'
tp5954
a(g5926
S'w1'
p5955
S's3'
p5956
S'p'
tp5957
asg5937
(lp5958
(g5926
g5952
tp5959
a(g5926
S'w4'
p5960
tp5961
a(g5926
g5955
tp5962
asg5940
(lp5963
(g5926
g5952
g5929
S'n'
tp5964
a(g5926
g5960
g5930
S'n'
tp5965
a(g5926
g5955
g5927
S'n'
tp5966
assg5927
(dp5967
g5935
(lp5968
(g5927
S'w1'
p5969
g5956
S'p'
tp5970
asg5937
(lp5971
(g5927
g5969
tp5972
asg5940
(lp5973
(g5927
g5969
g5926
S'n'
tp5974
assg5928
(dp5975
g5935
(lp5976
(g5928
S'w9'
p5977
S's2'
p5978
S'p'
tp5979
a(g5928
g5977
S's8'
S'p'
tp5980
asg5937
(lp5981
(g5928
g5977
tp5982
asg5940
(lp5983
ssg5929
(dp5984
g5935
(lp5985
(g5929
S'w7'
p5986
g5953
S'p'
tp5987
a(g5929
S'w13'
p5988
S's11'
p5989
S'p'
tp5990
asg5937
(lp5991
(g5929
g5986
tp5992
a(g5929
g5988
tp5993
asg5940
(lp5994
(g5929
g5986
g5926
S'n'
tp5995
assg5930
(dp5996
g5935
(lp5997
sg5937
(lp5998
(g5930
S'w4'
p5999
tp6000
asg5940
(lp6001
(g5930
g5999
g5926
S'n'
tp6002
assg5931
(dp6003
g5935
(lp6004
(g5931
S'w17'
p6005
S's4'
S'p'
tp6006
asg5937
(lp6007
(g5931
g6005
tp6008
asg5940
(lp6009
ssg5932
(dp6010
g5935
(lp6011
(g5932
S'w15'
p6012
S's4'
p6013
S'p'
tp6014
asg5937
(lp6015
(g5932
g6012
tp6016
asg5940
(lp6017
ss(lp6018
(g5939
g5948
g5959
g5972
g5982
g5993
g6000
g6008
g6016
tp6019
a(g5939
g5948
g5972
g5993
g6000
g6008
g6016
(g5926
g5952
g5953
S'p'
t(g5928
g5977
g5978
S'p'
ttp6020
a(g5939
g5948
g5972
g5982
g6008
(g5930
g5960
g5926
S'n'
t(g5926
g5952
g5929
S'n'
t(g5929
g5988
g5989
S'p'
t(g5932
g6012
g6013
S'p'
ttp6021
aF-1
tp6022
a(((S's8'
p6023
S's3'
p6024
S's2'
p6025
S's1'
p6026
S's7'
p6027
S's6'
p6028
S's4'
p6029
S's12'
p6030
S's11'
p6031
t(S'w10'
S'w3'
S'w7'
S'w1'
S'w9'
S'w13'
S'w4'
S'w18'
S'w15'
tt(dp6032
g6023
(dp6033
S'p_paths'
p6034
(lp6035
sS'edges'
p6036
(lp6037
(g6023
S'w10'
tp6038
asS'n_paths'
p6039
(lp6040
ssg6024
(dp6041
g6034
(lp6042
(g6024
S'w3'
p6043
S's2'
S'p'
tp6044
a(g6024
g6043
S's4'
S'p'
tp6045
asg6036
(lp6046
(g6024
g6043
tp6047
asg6039
(lp6048
ssg6025
(dp6049
g6034
(lp6050
(g6025
S'w7'
p6051
S's7'
p6052
S'p'
tp6053
a(g6025
S'w1'
p6054
S's3'
p6055
S'p'
tp6056
asg6036
(lp6057
(g6025
g6051
tp6058
a(g6025
S'w4'
p6059
tp6060
a(g6025
g6054
tp6061
asg6039
(lp6062
(g6025
g6051
g6028
S'n'
tp6063
a(g6025
g6059
g6029
S'n'
tp6064
a(g6025
g6054
g6026
S'n'
tp6065
assg6026
(dp6066
g6034
(lp6067
(g6026
S'w1'
p6068
g6055
S'p'
tp6069
asg6036
(lp6070
(g6026
g6068
tp6071
asg6039
(lp6072
(g6026
g6068
g6025
S'n'
tp6073
assg6027
(dp6074
g6034
(lp6075
(g6027
S'w9'
p6076
S's2'
p6077
S'p'
tp6078
a(g6027
g6076
S's8'
S'p'
tp6079
asg6036
(lp6080
(g6027
g6076
tp6081
asg6039
(lp6082
ssg6028
(dp6083
g6034
(lp6084
(g6028
S'w7'
p6085
g6052
S'p'
tp6086
a(g6028
S'w13'
p6087
S's11'
p6088
S'p'
tp6089
asg6036
(lp6090
(g6028
g6085
tp6091
a(g6028
g6087
tp6092
asg6039
(lp6093
(g6028
g6085
g6025
S'n'
tp6094
assg6029
(dp6095
g6034
(lp6096
sg6036
(lp6097
(g6029
S'w4'
p6098
tp6099
asg6039
(lp6100
(g6029
g6098
g6025
S'n'
tp6101
assg6030
(dp6102
g6034
(lp6103
(g6030
S'w18'
p6104
S's1'
S'p'
tp6105
asg6036
(lp6106
(g6030
g6104
tp6107
asg6039
(lp6108
ssg6031
(dp6109
g6034
(lp6110
(g6031
S'w15'
p6111
S's4'
p6112
S'p'
tp6113
asg6036
(lp6114
(g6031
g6111
tp6115
asg6039
(lp6116
ss(lp6117
(g6038
g6047
g6058
g6071
g6081
g6092
g6099
g6107
g6115
tp6118
a(g6038
g6047
g6071
g6092
g6099
g6107
g6115
(g6025
g6051
g6052
S'p'
t(g6027
g6076
g6077
S'p'
ttp6119
a(g6038
g6047
g6071
g6081
g6107
(g6029
g6059
g6025
S'n'
t(g6025
g6051
g6028
S'n'
t(g6028
g6087
g6088
S'p'
t(g6031
g6111
g6112
S'p'
ttp6120
aF-1
tp6121
a(((S's8'
p6122
S's2'
p6123
S's1'
p6124
S's10'
p6125
S's7'
p6126
S's6'
p6127
S's5'
p6128
S's4'
p6129
S's12'
p6130
t(S'w10'
S'w4'
S'w1'
S'w12'
S'w9'
S'w13'
S'w6'
S'w16'
S'w18'
tt(dp6131
g6122
(dp6132
S'p_paths'
p6133
(lp6134
(g6122
S'w10'
p6135
S's10'
S'p'
tp6136
asS'edges'
p6137
(lp6138
(g6122
g6135
tp6139
asS'n_paths'
p6140
(lp6141
ssg6123
(dp6142
g6133
(lp6143
(g6123
S'w4'
p6144
S's5'
p6145
S'p'
tp6146
asg6137
(lp6147
(g6123
g6144
tp6148
a(g6123
S'w1'
p6149
tp6150
asg6140
(lp6151
(g6123
g6144
g6129
S'n'
tp6152
a(g6123
g6149
g6124
S'n'
tp6153
assg6124
(dp6154
g6133
(lp6155
sg6137
(lp6156
(g6124
S'w1'
p6157
tp6158
asg6140
(lp6159
(g6124
g6157
g6123
S'n'
tp6160
assg6125
(dp6161
g6133
(lp6162
(g6125
S'w12'
p6163
S's6'
S'p'
tp6164
asg6137
(lp6165
(g6125
g6163
tp6166
asg6140
(lp6167
ssg6126
(dp6168
g6133
(lp6169
(g6126
S'w9'
p6170
S's2'
S'p'
tp6171
a(g6126
g6170
S's8'
S'p'
tp6172
asg6137
(lp6173
(g6126
g6170
tp6174
asg6140
(lp6175
ssg6127
(dp6176
g6133
(lp6177
sg6137
(lp6178
(g6127
S'w13'
tp6179
asg6140
(lp6180
ssg6128
(dp6181
g6133
(lp6182
(g6128
S'w6'
p6183
S's2'
p6184
S'p'
tp6185
a(g6128
g6183
S's6'
S'p'
tp6186
asg6137
(lp6187
(g6128
g6183
tp6188
asg6140
(lp6189
ssg6129
(dp6190
g6133
(lp6191
(g6129
S'w16'
p6192
S's12'
p6193
S'p'
tp6194
a(g6129
S'w4'
p6195
g6145
S'p'
tp6196
asg6137
(lp6197
(g6129
g6192
tp6198
a(g6129
g6195
tp6199
asg6140
(lp6200
(g6129
g6195
g6123
S'n'
tp6201
assg6130
(dp6202
g6133
(lp6203
(g6130
S'w18'
p6204
S's1'
p6205
S'p'
tp6206
asg6137
(lp6207
(g6130
g6204
tp6208
asg6140
(lp6209
ss(lp6210
(g6139
g6148
g6158
g6166
g6174
g6179
g6188
g6198
g6208
tp6211
a(g6139
g6166
g6174
g6179
g6188
(g6124
g6149
g6123
S'n'
t(g6123
g6144
g6129
S'n'
t(g6129
g6192
g6193
S'p'
t(g6130
g6204
g6205
S'p'
ttp6212
a(g6139
g6158
g6166
g6174
g6179
g6198
g6208
(g6128
g6183
g6184
S'p'
t(g6123
g6144
g6145
S'p'
ttp6213
aF-1
tp6214
a(((S's8'
p6215
S's2'
p6216
S's1'
p6217
S's10'
p6218
S's7'
p6219
S's6'
p6220
S's5'
p6221
S's4'
p6222
S's12'
p6223
t(S'w10'
S'w4'
S'w1'
S'w12'
S'w8'
S'w13'
S'w6'
S'w16'
S'w18'
tt(dp6224
g6215
(dp6225
S'p_paths'
p6226
(lp6227
(g6215
S'w10'
p6228
S's10'
S'p'
tp6229
asS'edges'
p6230
(lp6231
(g6215
g6228
tp6232
asS'n_paths'
p6233
(lp6234
ssg6216
(dp6235
g6226
(lp6236
(g6216
S'w4'
p6237
S's5'
p6238
S'p'
tp6239
asg6230
(lp6240
(g6216
g6237
tp6241
a(g6216
S'w1'
p6242
tp6243
asg6233
(lp6244
(g6216
g6237
g6222
S'n'
tp6245
a(g6216
g6242
g6217
S'n'
tp6246
assg6217
(dp6247
g6226
(lp6248
sg6230
(lp6249
(g6217
S'w1'
p6250
tp6251
asg6233
(lp6252
(g6217
g6250
g6216
S'n'
tp6253
assg6218
(dp6254
g6226
(lp6255
(g6218
S'w12'
p6256
S's6'
S'p'
tp6257
asg6230
(lp6258
(g6218
g6256
tp6259
asg6233
(lp6260
ssg6219
(dp6261
g6226
(lp6262
(g6219
S'w8'
p6263
S's2'
S'p'
tp6264
a(g6219
g6263
S's6'
S'p'
tp6265
asg6230
(lp6266
(g6219
g6263
tp6267
asg6233
(lp6268
ssg6220
(dp6269
g6226
(lp6270
sg6230
(lp6271
(g6220
S'w13'
tp6272
asg6233
(lp6273
ssg6221
(dp6274
g6226
(lp6275
(g6221
S'w6'
p6276
S's2'
p6277
S'p'
tp6278
a(g6221
g6276
S's6'
S'p'
tp6279
asg6230
(lp6280
(g6221
g6276
tp6281
asg6233
(lp6282
ssg6222
(dp6283
g6226
(lp6284
(g6222
S'w16'
p6285
S's12'
p6286
S'p'
tp6287
a(g6222
S'w4'
p6288
g6238
S'p'
tp6289
asg6230
(lp6290
(g6222
g6285
tp6291
a(g6222
g6288
tp6292
asg6233
(lp6293
(g6222
g6288
g6216
S'n'
tp6294
assg6223
(dp6295
g6226
(lp6296
(g6223
S'w18'
p6297
S's1'
p6298
S'p'
tp6299
asg6230
(lp6300
(g6223
g6297
tp6301
asg6233
(lp6302
ss(lp6303
(g6232
g6241
g6251
g6259
g6267
g6272
g6281
g6291
g6301
tp6304
a(g6232
g6259
g6267
g6272
g6281
(g6217
g6242
g6216
S'n'
t(g6216
g6237
g6222
S'n'
t(g6222
g6285
g6286
S'p'
t(g6223
g6297
g6298
S'p'
ttp6305
a(g6232
g6251
g6259
g6267
g6272
g6291
g6301
(g6221
g6276
g6277
S'p'
t(g6216
g6237
g6238
S'p'
ttp6306
aF-1
tp6307
a(((S's8'
p6308
S's2'
p6309
S's1'
p6310
S's10'
p6311
S's7'
p6312
S's5'
p6313
S's4'
p6314
S's12'
p6315
S's11'
p6316
t(S'w10'
S'w4'
S'w1'
S'w12'
S'w9'
S'w6'
S'w16'
S'w18'
S'w15'
tt(dp6317
g6308
(dp6318
S'p_paths'
p6319
(lp6320
(g6308
S'w10'
p6321
S's10'
S'p'
tp6322
asS'edges'
p6323
(lp6324
(g6308
g6321
tp6325
asS'n_paths'
p6326
(lp6327
ssg6309
(dp6328
g6319
(lp6329
(g6309
S'w4'
p6330
S's5'
p6331
S'p'
tp6332
asg6323
(lp6333
(g6309
g6330
tp6334
a(g6309
S'w1'
p6335
tp6336
asg6326
(lp6337
(g6309
g6330
g6314
S'n'
tp6338
a(g6309
g6335
g6310
S'n'
tp6339
assg6310
(dp6340
g6319
(lp6341
sg6323
(lp6342
(g6310
S'w1'
p6343
tp6344
asg6326
(lp6345
(g6310
g6343
g6309
S'n'
tp6346
assg6311
(dp6347
g6319
(lp6348
sg6323
(lp6349
(g6311
S'w12'
tp6350
asg6326
(lp6351
ssg6312
(dp6352
g6319
(lp6353
(g6312
S'w9'
p6354
S's2'
S'p'
tp6355
a(g6312
g6354
S's8'
S'p'
tp6356
asg6323
(lp6357
(g6312
g6354
tp6358
asg6326
(lp6359
ssg6313
(dp6360
g6319
(lp6361
(g6313
S'w6'
p6362
S's2'
p6363
S'p'
tp6364
asg6323
(lp6365
(g6313
g6362
tp6366
asg6326
(lp6367
ssg6314
(dp6368
g6319
(lp6369
(g6314
S'w16'
p6370
S's12'
p6371
S'p'
tp6372
a(g6314
S'w4'
p6373
g6331
S'p'
tp6374
asg6323
(lp6375
(g6314
g6370
tp6376
a(g6314
g6373
tp6377
asg6326
(lp6378
(g6314
g6373
g6309
S'n'
tp6379
assg6315
(dp6380
g6319
(lp6381
(g6315
S'w18'
p6382
S's1'
p6383
S'p'
tp6384
asg6323
(lp6385
(g6315
g6382
tp6386
asg6326
(lp6387
ssg6316
(dp6388
g6319
(lp6389
(g6316
S'w15'
p6390
S's4'
S'p'
tp6391
asg6323
(lp6392
(g6316
g6390
tp6393
asg6326
(lp6394
ss(lp6395
(g6325
g6334
g6344
g6350
g6358
g6366
g6376
g6386
g6393
tp6396
a(g6325
g6350
g6358
g6366
g6393
(g6310
g6335
g6309
S'n'
t(g6309
g6330
g6314
S'n'
t(g6314
g6370
g6371
S'p'
t(g6315
g6382
g6383
S'p'
ttp6397
a(g6325
g6344
g6350
g6358
g6376
g6386
g6393
(g6313
g6362
g6363
S'p'
t(g6309
g6330
g6331
S'p'
ttp6398
aF-1
tp6399
a(((S's8'
p6400
S's2'
p6401
S's1'
p6402
S's10'
p6403
S's7'
p6404
S's5'
p6405
S's4'
p6406
S's12'
p6407
S's11'
p6408
t(S'w10'
S'w4'
S'w1'
S'w12'
S'w9'
S'w6'
S'w16'
S'w18'
S'w14'
tt(dp6409
g6400
(dp6410
S'p_paths'
p6411
(lp6412
(g6400
S'w10'
p6413
S's10'
S'p'
tp6414
asS'edges'
p6415
(lp6416
(g6400
g6413
tp6417
asS'n_paths'
p6418
(lp6419
ssg6401
(dp6420
g6411
(lp6421
(g6401
S'w4'
p6422
S's5'
p6423
S'p'
tp6424
asg6415
(lp6425
(g6401
g6422
tp6426
a(g6401
S'w1'
p6427
tp6428
asg6418
(lp6429
(g6401
g6422
g6406
S'n'
tp6430
a(g6401
g6427
g6402
S'n'
tp6431
assg6402
(dp6432
g6411
(lp6433
sg6415
(lp6434
(g6402
S'w1'
p6435
tp6436
asg6418
(lp6437
(g6402
g6435
g6401
S'n'
tp6438
assg6403
(dp6439
g6411
(lp6440
sg6415
(lp6441
(g6403
S'w12'
tp6442
asg6418
(lp6443
ssg6404
(dp6444
g6411
(lp6445
(g6404
S'w9'
p6446
S's2'
S'p'
tp6447
a(g6404
g6446
S's8'
S'p'
tp6448
asg6415
(lp6449
(g6404
g6446
tp6450
asg6418
(lp6451
ssg6405
(dp6452
g6411
(lp6453
(g6405
S'w6'
p6454
S's2'
p6455
S'p'
tp6456
asg6415
(lp6457
(g6405
g6454
tp6458
asg6418
(lp6459
ssg6406
(dp6460
g6411
(lp6461
(g6406
S'w16'
p6462
S's12'
p6463
S'p'
tp6464
a(g6406
S'w4'
p6465
g6423
S'p'
tp6466
asg6415
(lp6467
(g6406
g6462
tp6468
a(g6406
g6465
tp6469
asg6418
(lp6470
(g6406
g6465
g6401
S'n'
tp6471
assg6407
(dp6472
g6411
(lp6473
(g6407
S'w18'
p6474
S's1'
p6475
S'p'
tp6476
asg6415
(lp6477
(g6407
g6474
tp6478
asg6418
(lp6479
ssg6408
(dp6480
g6411
(lp6481
sg6415
(lp6482
(g6408
S'w14'
tp6483
asg6418
(lp6484
ss(lp6485
(g6417
g6426
g6436
g6442
g6450
g6458
g6468
g6478
g6483
tp6486
a(g6417
g6442
g6450
g6458
g6483
(g6402
g6427
g6401
S'n'
t(g6401
g6422
g6406
S'n'
t(g6406
g6462
g6463
S'p'
t(g6407
g6474
g6475
S'p'
ttp6487
a(g6417
g6436
g6442
g6450
g6468
g6478
g6483
(g6405
g6454
g6455
S'p'
t(g6401
g6422
g6423
S'p'
ttp6488
aF-1
tp6489
a(((S's8'
p6490
S's2'
p6491
S's1'
p6492
S's10'
p6493
S's7'
p6494
S's5'
p6495
S's4'
p6496
S's12'
p6497
S's11'
p6498
t(S'w10'
S'w4'
S'w1'
S'w12'
S'w8'
S'w6'
S'w16'
S'w18'
S'w15'
tt(dp6499
g6490
(dp6500
S'p_paths'
p6501
(lp6502
(g6490
S'w10'
p6503
S's10'
S'p'
tp6504
asS'edges'
p6505
(lp6506
(g6490
g6503
tp6507
asS'n_paths'
p6508
(lp6509
ssg6491
(dp6510
g6501
(lp6511
(g6491
S'w4'
p6512
S's5'
p6513
S'p'
tp6514
asg6505
(lp6515
(g6491
g6512
tp6516
a(g6491
S'w1'
p6517
tp6518
asg6508
(lp6519
(g6491
g6512
g6496
S'n'
tp6520
a(g6491
g6517
g6492
S'n'
tp6521
assg6492
(dp6522
g6501
(lp6523
sg6505
(lp6524
(g6492
S'w1'
p6525
tp6526
asg6508
(lp6527
(g6492
g6525
g6491
S'n'
tp6528
assg6493
(dp6529
g6501
(lp6530
sg6505
(lp6531
(g6493
S'w12'
tp6532
asg6508
(lp6533
ssg6494
(dp6534
g6501
(lp6535
(g6494
S'w8'
p6536
S's2'
S'p'
tp6537
asg6505
(lp6538
(g6494
g6536
tp6539
asg6508
(lp6540
ssg6495
(dp6541
g6501
(lp6542
(g6495
S'w6'
p6543
S's2'
p6544
S'p'
tp6545
asg6505
(lp6546
(g6495
g6543
tp6547
asg6508
(lp6548
ssg6496
(dp6549
g6501
(lp6550
(g6496
S'w16'
p6551
S's12'
p6552
S'p'
tp6553
a(g6496
S'w4'
p6554
g6513
S'p'
tp6555
asg6505
(lp6556
(g6496
g6551
tp6557
a(g6496
g6554
tp6558
asg6508
(lp6559
(g6496
g6554
g6491
S'n'
tp6560
assg6497
(dp6561
g6501
(lp6562
(g6497
S'w18'
p6563
S's1'
p6564
S'p'
tp6565
asg6505
(lp6566
(g6497
g6563
tp6567
asg6508
(lp6568
ssg6498
(dp6569
g6501
(lp6570
(g6498
S'w15'
p6571
S's4'
S'p'
tp6572
asg6505
(lp6573
(g6498
g6571
tp6574
asg6508
(lp6575
ss(lp6576
(g6507
g6516
g6526
g6532
g6539
g6547
g6557
g6567
g6574
tp6577
a(g6507
g6532
g6539
g6547
g6574
(g6492
g6517
g6491
S'n'
t(g6491
g6512
g6496
S'n'
t(g6496
g6551
g6552
S'p'
t(g6497
g6563
g6564
S'p'
ttp6578
a(g6507
g6526
g6532
g6539
g6557
g6567
g6574
(g6495
g6543
g6544
S'p'
t(g6491
g6512
g6513
S'p'
ttp6579
aF-1
tp6580
a(((S's8'
p6581
S's2'
p6582
S's1'
p6583
S's10'
p6584
S's7'
p6585
S's5'
p6586
S's4'
p6587
S's12'
p6588
S's11'
p6589
t(S'w10'
S'w4'
S'w1'
S'w12'
S'w8'
S'w6'
S'w16'
S'w18'
S'w14'
tt(dp6590
g6581
(dp6591
S'p_paths'
p6592
(lp6593
(g6581
S'w10'
p6594
S's10'
S'p'
tp6595
asS'edges'
p6596
(lp6597
(g6581
g6594
tp6598
asS'n_paths'
p6599
(lp6600
ssg6582
(dp6601
g6592
(lp6602
(g6582
S'w4'
p6603
S's5'
p6604
S'p'
tp6605
asg6596
(lp6606
(g6582
g6603
tp6607
a(g6582
S'w1'
p6608
tp6609
asg6599
(lp6610
(g6582
g6603
g6587
S'n'
tp6611
a(g6582
g6608
g6583
S'n'
tp6612
assg6583
(dp6613
g6592
(lp6614
sg6596
(lp6615
(g6583
S'w1'
p6616
tp6617
asg6599
(lp6618
(g6583
g6616
g6582
S'n'
tp6619
assg6584
(dp6620
g6592
(lp6621
sg6596
(lp6622
(g6584
S'w12'
tp6623
asg6599
(lp6624
ssg6585
(dp6625
g6592
(lp6626
(g6585
S'w8'
p6627
S's2'
S'p'
tp6628
asg6596
(lp6629
(g6585
g6627
tp6630
asg6599
(lp6631
ssg6586
(dp6632
g6592
(lp6633
(g6586
S'w6'
p6634
S's2'
p6635
S'p'
tp6636
asg6596
(lp6637
(g6586
g6634
tp6638
asg6599
(lp6639
ssg6587
(dp6640
g6592
(lp6641
(g6587
S'w16'
p6642
S's12'
p6643
S'p'
tp6644
a(g6587
S'w4'
p6645
g6604
S'p'
tp6646
asg6596
(lp6647
(g6587
g6642
tp6648
a(g6587
g6645
tp6649
asg6599
(lp6650
(g6587
g6645
g6582
S'n'
tp6651
assg6588
(dp6652
g6592
(lp6653
(g6588
S'w18'
p6654
S's1'
p6655
S'p'
tp6656
asg6596
(lp6657
(g6588
g6654
tp6658
asg6599
(lp6659
ssg6589
(dp6660
g6592
(lp6661
sg6596
(lp6662
(g6589
S'w14'
tp6663
asg6599
(lp6664
ss(lp6665
(g6598
g6607
g6617
g6623
g6630
g6638
g6648
g6658
g6663
tp6666
a(g6598
g6623
g6630
g6638
g6663
(g6583
g6608
g6582
S'n'
t(g6582
g6603
g6587
S'n'
t(g6587
g6642
g6643
S'p'
t(g6588
g6654
g6655
S'p'
ttp6667
a(g6598
g6617
g6623
g6630
g6648
g6658
g6663
(g6586
g6634
g6635
S'p'
t(g6582
g6603
g6604
S'p'
ttp6668
aF-1
tp6669
a(((S's8'
p6670
S's2'
p6671
S's1'
p6672
S's7'
p6673
S's6'
p6674
S's5'
p6675
S's4'
p6676
S's12'
p6677
S's11'
p6678
t(S'w10'
S'w7'
S'w1'
S'w9'
S'w13'
S'w6'
S'w16'
S'w18'
S'w15'
tt(dp6679
g6670
(dp6680
S'p_paths'
p6681
(lp6682
sS'edges'
p6683
(lp6684
(g6670
S'w10'
tp6685
asS'n_paths'
p6686
(lp6687
ssg6671
(dp6688
g6681
(lp6689
(g6671
S'w7'
p6690
S's7'
p6691
S'p'
tp6692
asg6683
(lp6693
(g6671
g6690
tp6694
a(g6671
S'w1'
p6695
tp6696
asg6686
(lp6697
(g6671
g6690
g6674
S'n'
tp6698
a(g6671
g6695
g6672
S'n'
tp6699
assg6672
(dp6700
g6681
(lp6701
sg6683
(lp6702
(g6672
S'w1'
p6703
tp6704
asg6686
(lp6705
(g6672
g6703
g6671
S'n'
tp6706
assg6673
(dp6707
g6681
(lp6708
(g6673
S'w9'
p6709
S's2'
p6710
S'p'
tp6711
a(g6673
g6709
S's8'
S'p'
tp6712
asg6683
(lp6713
(g6673
g6709
tp6714
asg6686
(lp6715
ssg6674
(dp6716
g6681
(lp6717
(g6674
S'w7'
p6718
g6691
S'p'
tp6719
a(g6674
S'w13'
p6720
S's11'
p6721
S'p'
tp6722
asg6683
(lp6723
(g6674
g6718
tp6724
a(g6674
g6720
tp6725
asg6686
(lp6726
(g6674
g6718
g6671
S'n'
tp6727
assg6675
(dp6728
g6681
(lp6729
(g6675
S'w6'
p6730
S's2'
S'p'
tp6731
a(g6675
g6730
S's6'
S'p'
tp6732
asg6683
(lp6733
(g6675
g6730
tp6734
asg6686
(lp6735
ssg6676
(dp6736
g6681
(lp6737
(g6676
S'w16'
p6738
S's12'
p6739
S'p'
tp6740
asg6683
(lp6741
(g6676
g6738
tp6742
asg6686
(lp6743
ssg6677
(dp6744
g6681
(lp6745
(g6677
S'w18'
p6746
S's1'
p6747
S'p'
tp6748
asg6683
(lp6749
(g6677
g6746
tp6750
asg6686
(lp6751
ssg6678
(dp6752
g6681
(lp6753
(g6678
S'w15'
p6754
S's4'
p6755
S'p'
tp6756
asg6683
(lp6757
(g6678
g6754
tp6758
asg6686
(lp6759
ss(lp6760
(g6685
g6694
g6704
g6714
g6725
g6734
g6742
g6750
g6758
tp6761
a(g6685
g6714
g6734
(g6672
g6695
g6671
S'n'
t(g6671
g6690
g6674
S'n'
t(g6674
g6720
g6721
S'p'
t(g6678
g6754
g6755
S'p'
t(g6676
g6738
g6739
S'p'
t(g6677
g6746
g6747
S'p'
ttp6762
a(g6685
g6704
g6725
g6734
g6742
g6750
g6758
(g6671
g6690
g6691
S'p'
t(g6673
g6709
g6710
S'p'
ttp6763
aF-1
tp6764
a(((S's8'
p6765
S's2'
p6766
S's1'
p6767
S's7'
p6768
S's6'
p6769
S's5'
p6770
S's4'
p6771
S's12'
p6772
S's11'
p6773
t(S'w10'
S'w7'
S'w1'
S'w9'
S'w13'
S'w5'
S'w16'
S'w18'
S'w15'
tt(dp6774
g6765
(dp6775
S'p_paths'
p6776
(lp6777
sS'edges'
p6778
(lp6779
(g6765
S'w10'
tp6780
asS'n_paths'
p6781
(lp6782
ssg6766
(dp6783
g6776
(lp6784
(g6766
S'w7'
p6785
S's7'
p6786
S'p'
tp6787
asg6778
(lp6788
(g6766
g6785
tp6789
a(g6766
S'w1'
p6790
tp6791
asg6781
(lp6792
(g6766
g6785
g6769
S'n'
tp6793
a(g6766
g6790
g6767
S'n'
tp6794
assg6767
(dp6795
g6776
(lp6796
sg6778
(lp6797
(g6767
S'w1'
p6798
tp6799
asg6781
(lp6800
(g6767
g6798
g6766
S'n'
tp6801
assg6768
(dp6802
g6776
(lp6803
(g6768
S'w9'
p6804
S's2'
p6805
S'p'
tp6806
a(g6768
g6804
S's8'
S'p'
tp6807
asg6778
(lp6808
(g6768
g6804
tp6809
asg6781
(lp6810
ssg6769
(dp6811
g6776
(lp6812
(g6769
S'w7'
p6813
g6786
S'p'
tp6814
a(g6769
S'w13'
p6815
S's11'
p6816
S'p'
tp6817
asg6778
(lp6818
(g6769
g6813
tp6819
a(g6769
g6815
tp6820
asg6781
(lp6821
(g6769
g6813
g6766
S'n'
tp6822
assg6770
(dp6823
g6776
(lp6824
(g6770
S'w5'
p6825
S's2'
S'p'
tp6826
a(g6770
g6825
S's4'
S'p'
tp6827
asg6778
(lp6828
(g6770
g6825
tp6829
asg6781
(lp6830
ssg6771
(dp6831
g6776
(lp6832
(g6771
S'w16'
p6833
S's12'
p6834
S'p'
tp6835
asg6778
(lp6836
(g6771
g6833
tp6837
asg6781
(lp6838
ssg6772
(dp6839
g6776
(lp6840
(g6772
S'w18'
p6841
S's1'
p6842
S'p'
tp6843
asg6778
(lp6844
(g6772
g6841
tp6845
asg6781
(lp6846
ssg6773
(dp6847
g6776
(lp6848
(g6773
S'w15'
p6849
S's4'
p6850
S'p'
tp6851
asg6778
(lp6852
(g6773
g6849
tp6853
asg6781
(lp6854
ss(lp6855
(g6780
g6789
g6799
g6809
g6820
g6829
g6837
g6845
g6853
tp6856
a(g6780
g6809
g6829
(g6767
g6790
g6766
S'n'
t(g6766
g6785
g6769
S'n'
t(g6769
g6815
g6816
S'p'
t(g6773
g6849
g6850
S'p'
t(g6771
g6833
g6834
S'p'
t(g6772
g6841
g6842
S'p'
ttp6857
a(g6780
g6799
g6820
g6829
g6837
g6845
g6853
(g6766
g6785
g6786
S'p'
t(g6768
g6804
g6805
S'p'
ttp6858
aF-1
tp6859
a(((S's8'
p6860
S's2'
p6861
S's1'
p6862
S's7'
p6863
S's6'
p6864
S's5'
p6865
S's4'
p6866
S's12'
p6867
S's11'
p6868
t(S'w10'
S'w4'
S'w1'
S'w9'
S'w7'
S'w6'
S'w16'
S'w18'
S'w15'
tt(dp6869
g6860
(dp6870
S'p_paths'
p6871
(lp6872
sS'edges'
p6873
(lp6874
(g6860
S'w10'
tp6875
asS'n_paths'
p6876
(lp6877
ssg6861
(dp6878
g6871
(lp6879
(g6861
S'w7'
p6880
S's7'
p6881
S'p'
tp6882
a(g6861
S'w4'
p6883
S's5'
p6884
S'p'
tp6885
asg6873
(lp6886
(g6861
g6880
tp6887
a(g6861
g6883
tp6888
a(g6861
S'w1'
p6889
tp6890
asg6876
(lp6891
(g6861
g6880
g6864
S'n'
tp6892
a(g6861
g6883
g6866
S'n'
tp6893
a(g6861
g6889
g6862
S'n'
tp6894
assg6862
(dp6895
g6871
(lp6896
sg6873
(lp6897
(g6862
S'w1'
p6898
tp6899
asg6876
(lp6900
(g6862
g6898
g6861
S'n'
tp6901
assg6863
(dp6902
g6871
(lp6903
(g6863
S'w9'
p6904
S's2'
p6905
S'p'
tp6906
a(g6863
g6904
S's8'
S'p'
tp6907
asg6873
(lp6908
(g6863
g6904
tp6909
asg6876
(lp6910
ssg6864
(dp6911
g6871
(lp6912
(g6864
S'w7'
p6913
g6881
S'p'
tp6914
asg6873
(lp6915
(g6864
g6913
tp6916
asg6876
(lp6917
(g6864
g6913
g6861
S'n'
tp6918
assg6865
(dp6919
g6871
(lp6920
(g6865
S'w6'
p6921
S's2'
p6922
S'p'
tp6923
a(g6865
g6921
S's6'
p6924
S'p'
tp6925
asg6873
(lp6926
(g6865
g6921
tp6927
asg6876
(lp6928
ssg6866
(dp6929
g6871
(lp6930
(g6866
S'w16'
p6931
S's12'
p6932
S'p'
tp6933
a(g6866
S'w4'
p6934
g6884
S'p'
tp6935
asg6873
(lp6936
(g6866
g6931
tp6937
a(g6866
g6934
tp6938
asg6876
(lp6939
(g6866
g6934
g6861
S'n'
tp6940
assg6867
(dp6941
g6871
(lp6942
(g6867
S'w18'
p6943
S's1'
p6944
S'p'
tp6945
asg6873
(lp6946
(g6867
g6943
tp6947
asg6876
(lp6948
ssg6868
(dp6949
g6871
(lp6950
(g6868
S'w15'
p6951
S's4'
S'p'
tp6952
asg6873
(lp6953
(g6868
g6951
tp6954
asg6876
(lp6955
ss(lp6956
(g6875
g6888
g6899
g6909
g6916
g6927
g6937
g6947
g6954
tp6957
a(g6875
g6909
g6916
g6927
g6954
(g6862
g6889
g6861
S'n'
t(g6861
g6883
g6866
S'n'
t(g6866
g6931
g6932
S'p'
t(g6867
g6943
g6944
S'p'
ttp6958
a(g6875
g6899
g6909
g6916
g6937
g6947
g6954
(g6865
g6921
g6922
S'p'
t(g6861
g6883
g6884
S'p'
tp6959
tp6960
a(g6875
g6899
g6909
g6937
g6947
g6954
(g6864
g6880
g6861
S'n'
tg6959
(g6865
g6921
g6924
S'p'
tp6961
tp6962
a(g6875
g6899
g6937
g6947
g6954
(g6864
g6913
g6881
S'p'
t(g6863
g6904
g6905
S'p'
tg6959
g6961
tp6963
aF-1
tp6964
a(((S's8'
p6965
S's2'
p6966
S's1'
p6967
S's7'
p6968
S's6'
p6969
S's5'
p6970
S's4'
p6971
S's12'
p6972
S's11'
p6973
t(S'w10'
S'w4'
S'w1'
S'w9'
S'w7'
S'w6'
S'w16'
S'w18'
S'w14'
tt(dp6974
g6965
(dp6975
S'p_paths'
p6976
(lp6977
sS'edges'
p6978
(lp6979
(g6965
S'w10'
tp6980
asS'n_paths'
p6981
(lp6982
ssg6966
(dp6983
g6976
(lp6984
(g6966
S'w7'
p6985
S's7'
p6986
S'p'
tp6987
a(g6966
S'w4'
p6988
S's5'
p6989
S'p'
tp6990
asg6978
(lp6991
(g6966
g6985
tp6992
a(g6966
g6988
tp6993
a(g6966
S'w1'
p6994
tp6995
asg6981
(lp6996
(g6966
g6985
g6969
S'n'
tp6997
a(g6966
g6988
g6971
S'n'
tp6998
a(g6966
g6994
g6967
S'n'
tp6999
assg6967
(dp7000
g6976
(lp7001
sg6978
(lp7002
(g6967
S'w1'
p7003
tp7004
asg6981
(lp7005
(g6967
g7003
g6966
S'n'
tp7006
assg6968
(dp7007
g6976
(lp7008
(g6968
S'w9'
p7009
S's2'
p7010
S'p'
tp7011
a(g6968
g7009
S's8'
S'p'
tp7012
asg6978
(lp7013
(g6968
g7009
tp7014
asg6981
(lp7015
ssg6969
(dp7016
g6976
(lp7017
(g6969
S'w7'
p7018
g6986
S'p'
tp7019
asg6978
(lp7020
(g6969
g7018
tp7021
asg6981
(lp7022
(g6969
g7018
g6966
S'n'
tp7023
assg6970
(dp7024
g6976
(lp7025
(g6970
S'w6'
p7026
S's2'
p7027
S'p'
tp7028
a(g6970
g7026
S's6'
p7029
S'p'
tp7030
asg6978
(lp7031
(g6970
g7026
tp7032
asg6981
(lp7033
ssg6971
(dp7034
g6976
(lp7035
(g6971
S'w16'
p7036
S's12'
p7037
S'p'
tp7038
a(g6971
S'w4'
p7039
g6989
S'p'
tp7040
asg6978
(lp7041
(g6971
g7036
tp7042
a(g6971
g7039
tp7043
asg6981
(lp7044
(g6971
g7039
g6966
S'n'
tp7045
assg6972
(dp7046
g6976
(lp7047
(g6972
S'w18'
p7048
S's1'
p7049
S'p'
tp7050
asg6978
(lp7051
(g6972
g7048
tp7052
asg6981
(lp7053
ssg6973
(dp7054
g6976
(lp7055
(g6973
S'w14'
p7056
S's6'
S'p'
tp7057
asg6978
(lp7058
(g6973
g7056
tp7059
asg6981
(lp7060
ss(lp7061
(g6980
g6993
g7004
g7014
g7021
g7032
g7042
g7052
g7059
tp7062
a(g6980
g7014
g7021
g7032
g7059
(g6967
g6994
g6966
S'n'
t(g6966
g6988
g6971
S'n'
t(g6971
g7036
g7037
S'p'
t(g6972
g7048
g7049
S'p'
ttp7063
a(g6980
g7004
g7014
g7021
g7042
g7052
g7059
(g6970
g7026
g7027
S'p'
t(g6966
g6988
g6989
S'p'
tp7064
tp7065
a(g6980
g7004
g7014
g7042
g7052
g7059
(g6969
g6985
g6966
S'n'
tg7064
(g6970
g7026
g7029
S'p'
tp7066
tp7067
a(g6980
g7004
g7042
g7052
g7059
(g6969
g7018
g6986
S'p'
t(g6968
g7009
g7010
S'p'
tg7064
g7066
tp7068
aF-1
tp7069
a(((S's3'
p7070
S's2'
p7071
S's1'
p7072
S's10'
p7073
S's7'
p7074
S's6'
p7075
S's4'
p7076
S's12'
p7077
S's11'
p7078
t(S'w3'
S'w7'
S'w1'
S'w12'
S'w9'
S'w13'
S'w4'
S'w17'
S'w15'
tt(dp7079
g7070
(dp7080
S'p_paths'
p7081
(lp7082
(g7070
S'w3'
p7083
S's2'
S'p'
tp7084
a(g7070
g7083
S's4'
S'p'
tp7085
asS'edges'
p7086
(lp7087
(g7070
g7083
tp7088
asS'n_paths'
p7089
(lp7090
ssg7071
(dp7091
g7081
(lp7092
(g7071
S'w7'
p7093
S's7'
p7094
S'p'
tp7095
a(g7071
S'w1'
p7096
S's3'
p7097
S'p'
tp7098
asg7086
(lp7099
(g7071
g7093
tp7100
a(g7071
S'w4'
p7101
tp7102
a(g7071
g7096
tp7103
asg7089
(lp7104
(g7071
g7093
g7075
S'n'
tp7105
a(g7071
g7101
g7076
S'n'
tp7106
a(g7071
g7096
g7072
S'n'
tp7107
assg7072
(dp7108
g7081
(lp7109
(g7072
S'w1'
p7110
g7097
S'p'
tp7111
asg7086
(lp7112
(g7072
g7110
tp7113
asg7089
(lp7114
(g7072
g7110
g7071
S'n'
tp7115
assg7073
(dp7116
g7081
(lp7117
(g7073
S'w12'
p7118
S's6'
S'p'
tp7119
asg7086
(lp7120
(g7073
g7118
tp7121
asg7089
(lp7122
ssg7074
(dp7123
g7081
(lp7124
(g7074
S'w9'
p7125
S's2'
p7126
S'p'
tp7127
asg7086
(lp7128
(g7074
g7125
tp7129
asg7089
(lp7130
ssg7075
(dp7131
g7081
(lp7132
(g7075
S'w7'
p7133
g7094
S'p'
tp7134
a(g7075
S'w13'
p7135
S's11'
p7136
S'p'
tp7137
asg7086
(lp7138
(g7075
g7133
tp7139
a(g7075
g7135
tp7140
asg7089
(lp7141
(g7075
g7133
g7071
S'n'
tp7142
assg7076
(dp7143
g7081
(lp7144
sg7086
(lp7145
(g7076
S'w4'
p7146
tp7147
asg7089
(lp7148
(g7076
g7146
g7071
S'n'
tp7149
assg7077
(dp7150
g7081
(lp7151
(g7077
S'w17'
p7152
S's4'
S'p'
tp7153
asg7086
(lp7154
(g7077
g7152
tp7155
asg7089
(lp7156
ssg7078
(dp7157
g7081
(lp7158
(g7078
S'w15'
p7159
S's4'
p7160
S'p'
tp7161
asg7086
(lp7162
(g7078
g7159
tp7163
asg7089
(lp7164
ss(lp7165
(g7088
g7100
g7113
g7121
g7129
g7140
g7147
g7155
g7163
tp7166
a(g7088
g7113
g7121
g7140
g7147
g7155
g7163
(g7071
g7093
g7094
S'p'
t(g7074
g7125
g7126
S'p'
ttp7167
a(g7088
g7113
g7121
g7129
g7155
(g7076
g7101
g7071
S'n'
t(g7071
g7093
g7075
S'n'
t(g7075
g7135
g7136
S'p'
t(g7078
g7159
g7160
S'p'
ttp7168
aF-1
tp7169
a(((S's3'
p7170
S's2'
p7171
S's1'
p7172
S's10'
p7173
S's7'
p7174
S's6'
p7175
S's4'
p7176
S's12'
p7177
S's11'
p7178
t(S'w3'
S'w7'
S'w1'
S'w12'
S'w9'
S'w13'
S'w4'
S'w18'
S'w15'
tt(dp7179
g7170
(dp7180
S'p_paths'
p7181
(lp7182
(g7170
S'w3'
p7183
S's2'
S'p'
tp7184
a(g7170
g7183
S's4'
S'p'
tp7185
asS'edges'
p7186
(lp7187
(g7170
g7183
tp7188
asS'n_paths'
p7189
(lp7190
ssg7171
(dp7191
g7181
(lp7192
(g7171
S'w7'
p7193
S's7'
p7194
S'p'
tp7195
a(g7171
S'w1'
p7196
S's3'
p7197
S'p'
tp7198
asg7186
(lp7199
(g7171
g7193
tp7200
a(g7171
S'w4'
p7201
tp7202
a(g7171
g7196
tp7203
asg7189
(lp7204
(g7171
g7193
g7175
S'n'
tp7205
a(g7171
g7201
g7176
S'n'
tp7206
a(g7171
g7196
g7172
S'n'
tp7207
assg7172
(dp7208
g7181
(lp7209
(g7172
S'w1'
p7210
g7197
S'p'
tp7211
asg7186
(lp7212
(g7172
g7210
tp7213
asg7189
(lp7214
(g7172
g7210
g7171
S'n'
tp7215
assg7173
(dp7216
g7181
(lp7217
(g7173
S'w12'
p7218
S's6'
S'p'
tp7219
asg7186
(lp7220
(g7173
g7218
tp7221
asg7189
(lp7222
ssg7174
(dp7223
g7181
(lp7224
(g7174
S'w9'
p7225
S's2'
p7226
S'p'
tp7227
asg7186
(lp7228
(g7174
g7225
tp7229
asg7189
(lp7230
ssg7175
(dp7231
g7181
(lp7232
(g7175
S'w7'
p7233
g7194
S'p'
tp7234
a(g7175
S'w13'
p7235
S's11'
p7236
S'p'
tp7237
asg7186
(lp7238
(g7175
g7233
tp7239
a(g7175
g7235
tp7240
asg7189
(lp7241
(g7175
g7233
g7171
S'n'
tp7242
assg7176
(dp7243
g7181
(lp7244
sg7186
(lp7245
(g7176
S'w4'
p7246
tp7247
asg7189
(lp7248
(g7176
g7246
g7171
S'n'
tp7249
assg7177
(dp7250
g7181
(lp7251
(g7177
S'w18'
p7252
S's1'
S'p'
tp7253
asg7186
(lp7254
(g7177
g7252
tp7255
asg7189
(lp7256
ssg7178
(dp7257
g7181
(lp7258
(g7178
S'w15'
p7259
S's4'
p7260
S'p'
tp7261
asg7186
(lp7262
(g7178
g7259
tp7263
asg7189
(lp7264
ss(lp7265
(g7188
g7200
g7213
g7221
g7229
g7240
g7247
g7255
g7263
tp7266
a(g7188
g7213
g7221
g7240
g7247
g7255
g7263
(g7171
g7193
g7194
S'p'
t(g7174
g7225
g7226
S'p'
ttp7267
a(g7188
g7213
g7221
g7229
g7255
(g7176
g7201
g7171
S'n'
t(g7171
g7193
g7175
S'n'
t(g7175
g7235
g7236
S'p'
t(g7178
g7259
g7260
S'p'
ttp7268
aF-1
tp7269
a(((S's3'
p7270
S's2'
p7271
S's1'
p7272
S's10'
p7273
S's7'
p7274
S's6'
p7275
S's4'
p7276
S's12'
p7277
S's11'
p7278
t(S'w3'
S'w7'
S'w1'
S'w11'
S'w9'
S'w13'
S'w4'
S'w17'
S'w15'
tt(dp7279
g7270
(dp7280
S'p_paths'
p7281
(lp7282
(g7270
S'w3'
p7283
S's2'
S'p'
tp7284
a(g7270
g7283
S's4'
S'p'
tp7285
asS'edges'
p7286
(lp7287
(g7270
g7283
tp7288
asS'n_paths'
p7289
(lp7290
ssg7271
(dp7291
g7281
(lp7292
(g7271
S'w7'
p7293
S's7'
p7294
S'p'
tp7295
a(g7271
S'w1'
p7296
S's3'
p7297
S'p'
tp7298
asg7286
(lp7299
(g7271
g7293
tp7300
a(g7271
S'w4'
p7301
tp7302
a(g7271
g7296
tp7303
asg7289
(lp7304
(g7271
g7293
g7275
S'n'
tp7305
a(g7271
g7301
g7276
S'n'
tp7306
a(g7271
g7296
g7272
S'n'
tp7307
assg7272
(dp7308
g7281
(lp7309
(g7272
S'w1'
p7310
g7297
S'p'
tp7311
asg7286
(lp7312
(g7272
g7310
tp7313
asg7289
(lp7314
(g7272
g7310
g7271
S'n'
tp7315
assg7273
(dp7316
g7281
(lp7317
sg7286
(lp7318
(g7273
S'w11'
tp7319
asg7289
(lp7320
ssg7274
(dp7321
g7281
(lp7322
(g7274
S'w9'
p7323
S's2'
p7324
S'p'
tp7325
asg7286
(lp7326
(g7274
g7323
tp7327
asg7289
(lp7328
ssg7275
(dp7329
g7281
(lp7330
(g7275
S'w7'
p7331
g7294
S'p'
tp7332
a(g7275
S'w13'
p7333
S's11'
p7334
S'p'
tp7335
asg7286
(lp7336
(g7275
g7331
tp7337
a(g7275
g7333
tp7338
asg7289
(lp7339
(g7275
g7331
g7271
S'n'
tp7340
assg7276
(dp7341
g7281
(lp7342
sg7286
(lp7343
(g7276
S'w4'
p7344
tp7345
asg7289
(lp7346
(g7276
g7344
g7271
S'n'
tp7347
assg7277
(dp7348
g7281
(lp7349
(g7277
S'w17'
p7350
S's4'
S'p'
tp7351
asg7286
(lp7352
(g7277
g7350
tp7353
asg7289
(lp7354
ssg7278
(dp7355
g7281
(lp7356
(g7278
S'w15'
p7357
S's4'
p7358
S'p'
tp7359
asg7286
(lp7360
(g7278
g7357
tp7361
asg7289
(lp7362
ss(lp7363
(g7288
g7300
g7313
g7319
g7327
g7338
g7345
g7353
g7361
tp7364
a(g7288
g7313
g7319
g7338
g7345
g7353
g7361
(g7271
g7293
g7294
S'p'
t(g7274
g7323
g7324
S'p'
ttp7365
a(g7288
g7313
g7319
g7327
g7353
(g7276
g7301
g7271
S'n'
t(g7271
g7293
g7275
S'n'
t(g7275
g7333
g7334
S'p'
t(g7278
g7357
g7358
S'p'
ttp7366
aF-1
tp7367
a(((S's3'
p7368
S's2'
p7369
S's1'
p7370
S's10'
p7371
S's7'
p7372
S's6'
p7373
S's4'
p7374
S's12'
p7375
S's11'
p7376
t(S'w3'
S'w7'
S'w1'
S'w11'
S'w9'
S'w13'
S'w4'
S'w18'
S'w15'
tt(dp7377
g7368
(dp7378
S'p_paths'
p7379
(lp7380
(g7368
S'w3'
p7381
S's2'
S'p'
tp7382
a(g7368
g7381
S's4'
S'p'
tp7383
asS'edges'
p7384
(lp7385
(g7368
g7381
tp7386
asS'n_paths'
p7387
(lp7388
ssg7369
(dp7389
g7379
(lp7390
(g7369
S'w7'
p7391
S's7'
p7392
S'p'
tp7393
a(g7369
S'w1'
p7394
S's3'
p7395
S'p'
tp7396
asg7384
(lp7397
(g7369
g7391
tp7398
a(g7369
S'w4'
p7399
tp7400
a(g7369
g7394
tp7401
asg7387
(lp7402
(g7369
g7391
g7373
S'n'
tp7403
a(g7369
g7399
g7374
S'n'
tp7404
a(g7369
g7394
g7370
S'n'
tp7405
assg7370
(dp7406
g7379
(lp7407
(g7370
S'w1'
p7408
g7395
S'p'
tp7409
asg7384
(lp7410
(g7370
g7408
tp7411
asg7387
(lp7412
(g7370
g7408
g7369
S'n'
tp7413
assg7371
(dp7414
g7379
(lp7415
sg7384
(lp7416
(g7371
S'w11'
tp7417
asg7387
(lp7418
ssg7372
(dp7419
g7379
(lp7420
(g7372
S'w9'
p7421
S's2'
p7422
S'p'
tp7423
asg7384
(lp7424
(g7372
g7421
tp7425
asg7387
(lp7426
ssg7373
(dp7427
g7379
(lp7428
(g7373
S'w7'
p7429
g7392
S'p'
tp7430
a(g7373
S'w13'
p7431
S's11'
p7432
S'p'
tp7433
asg7384
(lp7434
(g7373
g7429
tp7435
a(g7373
g7431
tp7436
asg7387
(lp7437
(g7373
g7429
g7369
S'n'
tp7438
assg7374
(dp7439
g7379
(lp7440
sg7384
(lp7441
(g7374
S'w4'
p7442
tp7443
asg7387
(lp7444
(g7374
g7442
g7369
S'n'
tp7445
assg7375
(dp7446
g7379
(lp7447
(g7375
S'w18'
p7448
S's1'
S'p'
tp7449
asg7384
(lp7450
(g7375
g7448
tp7451
asg7387
(lp7452
ssg7376
(dp7453
g7379
(lp7454
(g7376
S'w15'
p7455
S's4'
p7456
S'p'
tp7457
asg7384
(lp7458
(g7376
g7455
tp7459
asg7387
(lp7460
ss(lp7461
(g7386
g7398
g7411
g7417
g7425
g7436
g7443
g7451
g7459
tp7462
a(g7386
g7411
g7417
g7436
g7443
g7451
g7459
(g7369
g7391
g7392
S'p'
t(g7372
g7421
g7422
S'p'
ttp7463
a(g7386
g7411
g7417
g7425
g7451
(g7374
g7399
g7369
S'n'
t(g7369
g7391
g7373
S'n'
t(g7373
g7431
g7432
S'p'
t(g7376
g7455
g7456
S'p'
ttp7464
aF-1
tp7465
a(((S's2'
p7466
S's1'
p7467
S's10'
p7468
S's7'
p7469
S's6'
p7470
S's5'
p7471
S's4'
p7472
S's12'
p7473
S's11'
p7474
t(S'w7'
S'w1'
S'w12'
S'w9'
S'w13'
S'w6'
S'w16'
S'w18'
S'w15'
tt(dp7475
g7466
(dp7476
S'p_paths'
p7477
(lp7478
(g7466
S'w7'
p7479
S's7'
p7480
S'p'
tp7481
asS'edges'
p7482
(lp7483
(g7466
g7479
tp7484
a(g7466
S'w1'
p7485
tp7486
asS'n_paths'
p7487
(lp7488
(g7466
g7479
g7470
S'n'
tp7489
a(g7466
g7485
g7467
S'n'
tp7490
assg7467
(dp7491
g7477
(lp7492
sg7482
(lp7493
(g7467
S'w1'
p7494
tp7495
asg7487
(lp7496
(g7467
g7494
g7466
S'n'
tp7497
assg7468
(dp7498
g7477
(lp7499
(g7468
S'w12'
p7500
S's6'
S'p'
tp7501
asg7482
(lp7502
(g7468
g7500
tp7503
asg7487
(lp7504
ssg7469
(dp7505
g7477
(lp7506
(g7469
S'w9'
p7507
S's2'
p7508
S'p'
tp7509
asg7482
(lp7510
(g7469
g7507
tp7511
asg7487
(lp7512
ssg7470
(dp7513
g7477
(lp7514
(g7470
S'w7'
p7515
g7480
S'p'
tp7516
a(g7470
S'w13'
p7517
S's11'
p7518
S'p'
tp7519
asg7482
(lp7520
(g7470
g7515
tp7521
a(g7470
g7517
tp7522
asg7487
(lp7523
(g7470
g7515
g7466
S'n'
tp7524
assg7471
(dp7525
g7477
(lp7526
(g7471
S'w6'
p7527
S's2'
S'p'
tp7528
a(g7471
g7527
S's6'
S'p'
tp7529
asg7482
(lp7530
(g7471
g7527
tp7531
asg7487
(lp7532
ssg7472
(dp7533
g7477
(lp7534
(g7472
S'w16'
p7535
S's12'
p7536
S'p'
tp7537
asg7482
(lp7538
(g7472
g7535
tp7539
asg7487
(lp7540
ssg7473
(dp7541
g7477
(lp7542
(g7473
S'w18'
p7543
S's1'
p7544
S'p'
tp7545
asg7482
(lp7546
(g7473
g7543
tp7547
asg7487
(lp7548
ssg7474
(dp7549
g7477
(lp7550
(g7474
S'w15'
p7551
S's4'
p7552
S'p'
tp7553
asg7482
(lp7554
(g7474
g7551
tp7555
asg7487
(lp7556
ss(lp7557
(g7484
g7495
g7503
g7511
g7522
g7531
g7539
g7547
g7555
tp7558
a(g7503
g7511
g7531
(g7467
g7485
g7466
S'n'
t(g7466
g7479
g7470
S'n'
t(g7470
g7517
g7518
S'p'
t(g7474
g7551
g7552
S'p'
t(g7472
g7535
g7536
S'p'
t(g7473
g7543
g7544
S'p'
ttp7559
a(g7495
g7503
g7522
g7531
g7539
g7547
g7555
(g7466
g7479
g7480
S'p'
t(g7469
g7507
g7508
S'p'
ttp7560
aF-1
tp7561
a(((S's2'
p7562
S's1'
p7563
S's10'
p7564
S's7'
p7565
S's6'
p7566
S's5'
p7567
S's4'
p7568
S's12'
p7569
S's11'
p7570
t(S'w7'
S'w1'
S'w12'
S'w9'
S'w13'
S'w5'
S'w16'
S'w18'
S'w15'
tt(dp7571
g7562
(dp7572
S'p_paths'
p7573
(lp7574
(g7562
S'w7'
p7575
S's7'
p7576
S'p'
tp7577
asS'edges'
p7578
(lp7579
(g7562
g7575
tp7580
a(g7562
S'w1'
p7581
tp7582
asS'n_paths'
p7583
(lp7584
(g7562
g7575
g7566
S'n'
tp7585
a(g7562
g7581
g7563
S'n'
tp7586
assg7563
(dp7587
g7573
(lp7588
sg7578
(lp7589
(g7563
S'w1'
p7590
tp7591
asg7583
(lp7592
(g7563
g7590
g7562
S'n'
tp7593
assg7564
(dp7594
g7573
(lp7595
(g7564
S'w12'
p7596
S's6'
S'p'
tp7597
asg7578
(lp7598
(g7564
g7596
tp7599
asg7583
(lp7600
ssg7565
(dp7601
g7573
(lp7602
(g7565
S'w9'
p7603
S's2'
p7604
S'p'
tp7605
asg7578
(lp7606
(g7565
g7603
tp7607
asg7583
(lp7608
ssg7566
(dp7609
g7573
(lp7610
(g7566
S'w7'
p7611
g7576
S'p'
tp7612
a(g7566
S'w13'
p7613
S's11'
p7614
S'p'
tp7615
asg7578
(lp7616
(g7566
g7611
tp7617
a(g7566
g7613
tp7618
asg7583
(lp7619
(g7566
g7611
g7562
S'n'
tp7620
assg7567
(dp7621
g7573
(lp7622
(g7567
S'w5'
p7623
S's2'
S'p'
tp7624
a(g7567
g7623
S's4'
S'p'
tp7625
asg7578
(lp7626
(g7567
g7623
tp7627
asg7583
(lp7628
ssg7568
(dp7629
g7573
(lp7630
(g7568
S'w16'
p7631
S's12'
p7632
S'p'
tp7633
asg7578
(lp7634
(g7568
g7631
tp7635
asg7583
(lp7636
ssg7569
(dp7637
g7573
(lp7638
(g7569
S'w18'
p7639
S's1'
p7640
S'p'
tp7641
asg7578
(lp7642
(g7569
g7639
tp7643
asg7583
(lp7644
ssg7570
(dp7645
g7573
(lp7646
(g7570
S'w15'
p7647
S's4'
p7648
S'p'
tp7649
asg7578
(lp7650
(g7570
g7647
tp7651
asg7583
(lp7652
ss(lp7653
(g7580
g7591
g7599
g7607
g7618
g7627
g7635
g7643
g7651
tp7654
a(g7599
g7607
g7627
(g7563
g7581
g7562
S'n'
t(g7562
g7575
g7566
S'n'
t(g7566
g7613
g7614
S'p'
t(g7570
g7647
g7648
S'p'
t(g7568
g7631
g7632
S'p'
t(g7569
g7639
g7640
S'p'
ttp7655
a(g7591
g7599
g7618
g7627
g7635
g7643
g7651
(g7562
g7575
g7576
S'p'
t(g7565
g7603
g7604
S'p'
ttp7656
aF-1
tp7657
a(((S's2'
p7658
S's1'
p7659
S's10'
p7660
S's7'
p7661
S's6'
p7662
S's5'
p7663
S's4'
p7664
S's12'
p7665
S's11'
p7666
t(S'w7'
S'w1'
S'w11'
S'w9'
S'w13'
S'w6'
S'w16'
S'w18'
S'w15'
tt(dp7667
g7658
(dp7668
S'p_paths'
p7669
(lp7670
(g7658
S'w7'
p7671
S's7'
p7672
S'p'
tp7673
asS'edges'
p7674
(lp7675
(g7658
g7671
tp7676
a(g7658
S'w1'
p7677
tp7678
asS'n_paths'
p7679
(lp7680
(g7658
g7671
g7662
S'n'
tp7681
a(g7658
g7677
g7659
S'n'
tp7682
assg7659
(dp7683
g7669
(lp7684
sg7674
(lp7685
(g7659
S'w1'
p7686
tp7687
asg7679
(lp7688
(g7659
g7686
g7658
S'n'
tp7689
assg7660
(dp7690
g7669
(lp7691
sg7674
(lp7692
(g7660
S'w11'
tp7693
asg7679
(lp7694
ssg7661
(dp7695
g7669
(lp7696
(g7661
S'w9'
p7697
S's2'
p7698
S'p'
tp7699
asg7674
(lp7700
(g7661
g7697
tp7701
asg7679
(lp7702
ssg7662
(dp7703
g7669
(lp7704
(g7662
S'w7'
p7705
g7672
S'p'
tp7706
a(g7662
S'w13'
p7707
S's11'
p7708
S'p'
tp7709
asg7674
(lp7710
(g7662
g7705
tp7711
a(g7662
g7707
tp7712
asg7679
(lp7713
(g7662
g7705
g7658
S'n'
tp7714
assg7663
(dp7715
g7669
(lp7716
(g7663
S'w6'
p7717
S's2'
S'p'
tp7718
a(g7663
g7717
S's6'
S'p'
tp7719
asg7674
(lp7720
(g7663
g7717
tp7721
asg7679
(lp7722
ssg7664
(dp7723
g7669
(lp7724
(g7664
S'w16'
p7725
S's12'
p7726
S'p'
tp7727
asg7674
(lp7728
(g7664
g7725
tp7729
asg7679
(lp7730
ssg7665
(dp7731
g7669
(lp7732
(g7665
S'w18'
p7733
S's1'
p7734
S'p'
tp7735
asg7674
(lp7736
(g7665
g7733
tp7737
asg7679
(lp7738
ssg7666
(dp7739
g7669
(lp7740
(g7666
S'w15'
p7741
S's4'
p7742
S'p'
tp7743
asg7674
(lp7744
(g7666
g7741
tp7745
asg7679
(lp7746
ss(lp7747
(g7676
g7687
g7693
g7701
g7712
g7721
g7729
g7737
g7745
tp7748
a(g7693
g7701
g7721
(g7659
g7677
g7658
S'n'
t(g7658
g7671
g7662
S'n'
t(g7662
g7707
g7708
S'p'
t(g7666
g7741
g7742
S'p'
t(g7664
g7725
g7726
S'p'
t(g7665
g7733
g7734
S'p'
ttp7749
a(g7687
g7693
g7712
g7721
g7729
g7737
g7745
(g7658
g7671
g7672
S'p'
t(g7661
g7697
g7698
S'p'
ttp7750
aF-1
tp7751
a(((S's2'
p7752
S's1'
p7753
S's10'
p7754
S's7'
p7755
S's6'
p7756
S's5'
p7757
S's4'
p7758
S's12'
p7759
S's11'
p7760
t(S'w7'
S'w1'
S'w11'
S'w9'
S'w13'
S'w5'
S'w16'
S'w18'
S'w15'
tt(dp7761
g7752
(dp7762
S'p_paths'
p7763
(lp7764
(g7752
S'w7'
p7765
S's7'
p7766
S'p'
tp7767
asS'edges'
p7768
(lp7769
(g7752
g7765
tp7770
a(g7752
S'w1'
p7771
tp7772
asS'n_paths'
p7773
(lp7774
(g7752
g7765
g7756
S'n'
tp7775
a(g7752
g7771
g7753
S'n'
tp7776
assg7753
(dp7777
g7763
(lp7778
sg7768
(lp7779
(g7753
S'w1'
p7780
tp7781
asg7773
(lp7782
(g7753
g7780
g7752
S'n'
tp7783
assg7754
(dp7784
g7763
(lp7785
sg7768
(lp7786
(g7754
S'w11'
tp7787
asg7773
(lp7788
ssg7755
(dp7789
g7763
(lp7790
(g7755
S'w9'
p7791
S's2'
p7792
S'p'
tp7793
asg7768
(lp7794
(g7755
g7791
tp7795
asg7773
(lp7796
ssg7756
(dp7797
g7763
(lp7798
(g7756
S'w7'
p7799
g7766
S'p'
tp7800
a(g7756
S'w13'
p7801
S's11'
p7802
S'p'
tp7803
asg7768
(lp7804
(g7756
g7799
tp7805
a(g7756
g7801
tp7806
asg7773
(lp7807
(g7756
g7799
g7752
S'n'
tp7808
assg7757
(dp7809
g7763
(lp7810
(g7757
S'w5'
p7811
S's2'
S'p'
tp7812
a(g7757
g7811
S's4'
S'p'
tp7813
asg7768
(lp7814
(g7757
g7811
tp7815
asg7773
(lp7816
ssg7758
(dp7817
g7763
(lp7818
(g7758
S'w16'
p7819
S's12'
p7820
S'p'
tp7821
asg7768
(lp7822
(g7758
g7819
tp7823
asg7773
(lp7824
ssg7759
(dp7825
g7763
(lp7826
(g7759
S'w18'
p7827
S's1'
p7828
S'p'
tp7829
asg7768
(lp7830
(g7759
g7827
tp7831
asg7773
(lp7832
ssg7760
(dp7833
g7763
(lp7834
(g7760
S'w15'
p7835
S's4'
p7836
S'p'
tp7837
asg7768
(lp7838
(g7760
g7835
tp7839
asg7773
(lp7840
ss(lp7841
(g7770
g7781
g7787
g7795
g7806
g7815
g7823
g7831
g7839
tp7842
a(g7787
g7795
g7815
(g7753
g7771
g7752
S'n'
t(g7752
g7765
g7756
S'n'
t(g7756
g7801
g7802
S'p'
t(g7760
g7835
g7836
S'p'
t(g7758
g7819
g7820
S'p'
t(g7759
g7827
g7828
S'p'
ttp7843
a(g7781
g7787
g7806
g7815
g7823
g7831
g7839
(g7752
g7765
g7766
S'p'
t(g7755
g7791
g7792
S'p'
ttp7844
aF-1
tp7845
a(((S's2'
p7846
S's1'
p7847
S's10'
p7848
S's7'
p7849
S's6'
p7850
S's5'
p7851
S's4'
p7852
S's12'
p7853
S's11'
p7854
t(S'w4'
S'w1'
S'w12'
S'w9'
S'w7'
S'w6'
S'w16'
S'w18'
S'w15'
tt(dp7855
g7846
(dp7856
S'p_paths'
p7857
(lp7858
(g7846
S'w7'
p7859
S's7'
p7860
S'p'
tp7861
a(g7846
S'w4'
p7862
S's5'
p7863
S'p'
tp7864
asS'edges'
p7865
(lp7866
(g7846
g7859
tp7867
a(g7846
g7862
tp7868
a(g7846
S'w1'
p7869
tp7870
asS'n_paths'
p7871
(lp7872
(g7846
g7859
g7850
S'n'
tp7873
a(g7846
g7862
g7852
S'n'
tp7874
a(g7846
g7869
g7847
S'n'
tp7875
assg7847
(dp7876
g7857
(lp7877
sg7865
(lp7878
(g7847
S'w1'
p7879
tp7880
asg7871
(lp7881
(g7847
g7879
g7846
S'n'
tp7882
assg7848
(dp7883
g7857
(lp7884
(g7848
S'w12'
p7885
S's6'
S'p'
tp7886
asg7865
(lp7887
(g7848
g7885
tp7888
asg7871
(lp7889
ssg7849
(dp7890
g7857
(lp7891
(g7849
S'w9'
p7892
S's2'
p7893
S'p'
tp7894
asg7865
(lp7895
(g7849
g7892
tp7896
asg7871
(lp7897
ssg7850
(dp7898
g7857
(lp7899
(g7850
S'w7'
p7900
g7860
S'p'
tp7901
asg7865
(lp7902
(g7850
g7900
tp7903
asg7871
(lp7904
(g7850
g7900
g7846
S'n'
tp7905
assg7851
(dp7906
g7857
(lp7907
(g7851
S'w6'
p7908
S's2'
p7909
S'p'
tp7910
a(g7851
g7908
S's6'
p7911
S'p'
tp7912
asg7865
(lp7913
(g7851
g7908
tp7914
asg7871
(lp7915
ssg7852
(dp7916
g7857
(lp7917
(g7852
S'w16'
p7918
S's12'
p7919
S'p'
tp7920
a(g7852
S'w4'
p7921
g7863
S'p'
tp7922
asg7865
(lp7923
(g7852
g7918
tp7924
a(g7852
g7921
tp7925
asg7871
(lp7926
(g7852
g7921
g7846
S'n'
tp7927
assg7853
(dp7928
g7857
(lp7929
(g7853
S'w18'
p7930
S's1'
p7931
S'p'
tp7932
asg7865
(lp7933
(g7853
g7930
tp7934
asg7871
(lp7935
ssg7854
(dp7936
g7857
(lp7937
(g7854
S'w15'
p7938
S's4'
S'p'
tp7939
asg7865
(lp7940
(g7854
g7938
tp7941
asg7871
(lp7942
ss(lp7943
(g7868
g7880
g7888
g7896
g7903
g7914
g7924
g7934
g7941
tp7944
a(g7888
g7896
g7903
g7914
g7941
(g7847
g7869
g7846
S'n'
t(g7846
g7862
g7852
S'n'
t(g7852
g7918
g7919
S'p'
t(g7853
g7930
g7931
S'p'
ttp7945
a(g7880
g7888
g7896
g7903
g7924
g7934
g7941
(g7851
g7908
g7909
S'p'
t(g7846
g7862
g7863
S'p'
tp7946
tp7947
a(g7880
g7888
g7896
g7924
g7934
g7941
(g7850
g7859
g7846
S'n'
tg7946
(g7851
g7908
g7911
S'p'
tp7948
tp7949
a(g7880
g7888
g7924
g7934
g7941
(g7850
g7900
g7860
S'p'
t(g7849
g7892
g7893
S'p'
tg7946
g7948
tp7950
aF-1
tp7951
a(((S's2'
p7952
S's1'
p7953
S's10'
p7954
S's7'
p7955
S's6'
p7956
S's5'
p7957
S's4'
p7958
S's12'
p7959
S's11'
p7960
t(S'w4'
S'w1'
S'w12'
S'w9'
S'w7'
S'w6'
S'w16'
S'w18'
S'w14'
tt(dp7961
g7952
(dp7962
S'p_paths'
p7963
(lp7964
(g7952
S'w7'
p7965
S's7'
p7966
S'p'
tp7967
a(g7952
S'w4'
p7968
S's5'
p7969
S'p'
tp7970
asS'edges'
p7971
(lp7972
(g7952
g7965
tp7973
a(g7952
g7968
tp7974
a(g7952
S'w1'
p7975
tp7976
asS'n_paths'
p7977
(lp7978
(g7952
g7965
g7956
S'n'
tp7979
a(g7952
g7968
g7958
S'n'
tp7980
a(g7952
g7975
g7953
S'n'
tp7981
assg7953
(dp7982
g7963
(lp7983
sg7971
(lp7984
(g7953
S'w1'
p7985
tp7986
asg7977
(lp7987
(g7953
g7985
g7952
S'n'
tp7988
assg7954
(dp7989
g7963
(lp7990
(g7954
S'w12'
p7991
S's6'
S'p'
tp7992
asg7971
(lp7993
(g7954
g7991
tp7994
asg7977
(lp7995
ssg7955
(dp7996
g7963
(lp7997
(g7955
S'w9'
p7998
S's2'
p7999
S'p'
tp8000
asg7971
(lp8001
(g7955
g7998
tp8002
asg7977
(lp8003
ssg7956
(dp8004
g7963
(lp8005
(g7956
S'w7'
p8006
g7966
S'p'
tp8007
asg7971
(lp8008
(g7956
g8006
tp8009
asg7977
(lp8010
(g7956
g8006
g7952
S'n'
tp8011
assg7957
(dp8012
g7963
(lp8013
(g7957
S'w6'
p8014
S's2'
p8015
S'p'
tp8016
a(g7957
g8014
S's6'
p8017
S'p'
tp8018
asg7971
(lp8019
(g7957
g8014
tp8020
asg7977
(lp8021
ssg7958
(dp8022
g7963
(lp8023
(g7958
S'w16'
p8024
S's12'
p8025
S'p'
tp8026
a(g7958
S'w4'
p8027
g7969
S'p'
tp8028
asg7971
(lp8029
(g7958
g8024
tp8030
a(g7958
g8027
tp8031
asg7977
(lp8032
(g7958
g8027
g7952
S'n'
tp8033
assg7959
(dp8034
g7963
(lp8035
(g7959
S'w18'
p8036
S's1'
p8037
S'p'
tp8038
asg7971
(lp8039
(g7959
g8036
tp8040
asg7977
(lp8041
ssg7960
(dp8042
g7963
(lp8043
(g7960
S'w14'
p8044
S's6'
S'p'
tp8045
asg7971
(lp8046
(g7960
g8044
tp8047
asg7977
(lp8048
ss(lp8049
(g7974
g7986
g7994
g8002
g8009
g8020
g8030
g8040
g8047
tp8050
a(g7994
g8002
g8009
g8020
g8047
(g7953
g7975
g7952
S'n'
t(g7952
g7968
g7958
S'n'
t(g7958
g8024
g8025
S'p'
t(g7959
g8036
g8037
S'p'
ttp8051
a(g7986
g7994
g8002
g8009
g8030
g8040
g8047
(g7957
g8014
g8015
S'p'
t(g7952
g7968
g7969
S'p'
tp8052
tp8053
a(g7986
g7994
g8002
g8030
g8040
g8047
(g7956
g7965
g7952
S'n'
tg8052
(g7957
g8014
g8017
S'p'
tp8054
tp8055
a(g7986
g7994
g8030
g8040
g8047
(g7956
g8006
g7966
S'p'
t(g7955
g7998
g7999
S'p'
tg8052
g8054
tp8056
aF-1
tp8057
a(((S's2'
p8058
S's1'
p8059
S's10'
p8060
S's7'
p8061
S's6'
p8062
S's5'
p8063
S's4'
p8064
S's12'
p8065
S's11'
p8066
t(S'w4'
S'w1'
S'w11'
S'w9'
S'w7'
S'w6'
S'w16'
S'w18'
S'w15'
tt(dp8067
g8058
(dp8068
S'p_paths'
p8069
(lp8070
(g8058
S'w7'
p8071
S's7'
p8072
S'p'
tp8073
a(g8058
S'w4'
p8074
S's5'
p8075
S'p'
tp8076
asS'edges'
p8077
(lp8078
(g8058
g8071
tp8079
a(g8058
g8074
tp8080
a(g8058
S'w1'
p8081
tp8082
asS'n_paths'
p8083
(lp8084
(g8058
g8071
g8062
S'n'
tp8085
a(g8058
g8074
g8064
S'n'
tp8086
a(g8058
g8081
g8059
S'n'
tp8087
assg8059
(dp8088
g8069
(lp8089
sg8077
(lp8090
(g8059
S'w1'
p8091
tp8092
asg8083
(lp8093
(g8059
g8091
g8058
S'n'
tp8094
assg8060
(dp8095
g8069
(lp8096
sg8077
(lp8097
(g8060
S'w11'
tp8098
asg8083
(lp8099
ssg8061
(dp8100
g8069
(lp8101
(g8061
S'w9'
p8102
S's2'
p8103
S'p'
tp8104
asg8077
(lp8105
(g8061
g8102
tp8106
asg8083
(lp8107
ssg8062
(dp8108
g8069
(lp8109
(g8062
S'w7'
p8110
g8072
S'p'
tp8111
asg8077
(lp8112
(g8062
g8110
tp8113
asg8083
(lp8114
(g8062
g8110
g8058
S'n'
tp8115
assg8063
(dp8116
g8069
(lp8117
(g8063
S'w6'
p8118
S's2'
p8119
S'p'
tp8120
a(g8063
g8118
S's6'
p8121
S'p'
tp8122
asg8077
(lp8123
(g8063
g8118
tp8124
asg8083
(lp8125
ssg8064
(dp8126
g8069
(lp8127
(g8064
S'w16'
p8128
S's12'
p8129
S'p'
tp8130
a(g8064
S'w4'
p8131
g8075
S'p'
tp8132
asg8077
(lp8133
(g8064
g8128
tp8134
a(g8064
g8131
tp8135
asg8083
(lp8136
(g8064
g8131
g8058
S'n'
tp8137
assg8065
(dp8138
g8069
(lp8139
(g8065
S'w18'
p8140
S's1'
p8141
S'p'
tp8142
asg8077
(lp8143
(g8065
g8140
tp8144
asg8083
(lp8145
ssg8066
(dp8146
g8069
(lp8147
(g8066
S'w15'
p8148
S's4'
S'p'
tp8149
asg8077
(lp8150
(g8066
g8148
tp8151
asg8083
(lp8152
ss(lp8153
(g8080
g8092
g8098
g8106
g8113
g8124
g8134
g8144
g8151
tp8154
a(g8098
g8106
g8113
g8124
g8151
(g8059
g8081
g8058
S'n'
t(g8058
g8074
g8064
S'n'
t(g8064
g8128
g8129
S'p'
t(g8065
g8140
g8141
S'p'
ttp8155
a(g8092
g8098
g8106
g8113
g8134
g8144
g8151
(g8063
g8118
g8119
S'p'
t(g8058
g8074
g8075
S'p'
tp8156
tp8157
a(g8092
g8098
g8106
g8134
g8144
g8151
(g8062
g8071
g8058
S'n'
tg8156
(g8063
g8118
g8121
S'p'
tp8158
tp8159
a(g8092
g8098
g8134
g8144
g8151
(g8062
g8110
g8072
S'p'
t(g8061
g8102
g8103
S'p'
tg8156
g8158
tp8160
aF-1
tp8161
a(((S's2'
p8162
S's1'
p8163
S's10'
p8164
S's7'
p8165
S's6'
p8166
S's5'
p8167
S's4'
p8168
S's12'
p8169
S's11'
p8170
t(S'w4'
S'w1'
S'w11'
S'w9'
S'w7'
S'w6'
S'w16'
S'w18'
S'w14'
tt(dp8171
g8162
(dp8172
S'p_paths'
p8173
(lp8174
(g8162
S'w7'
p8175
S's7'
p8176
S'p'
tp8177
a(g8162
S'w4'
p8178
S's5'
p8179
S'p'
tp8180
asS'edges'
p8181
(lp8182
(g8162
g8175
tp8183
a(g8162
g8178
tp8184
a(g8162
S'w1'
p8185
tp8186
asS'n_paths'
p8187
(lp8188
(g8162
g8175
g8166
S'n'
tp8189
a(g8162
g8178
g8168
S'n'
tp8190
a(g8162
g8185
g8163
S'n'
tp8191
assg8163
(dp8192
g8173
(lp8193
sg8181
(lp8194
(g8163
S'w1'
p8195
tp8196
asg8187
(lp8197
(g8163
g8195
g8162
S'n'
tp8198
assg8164
(dp8199
g8173
(lp8200
sg8181
(lp8201
(g8164
S'w11'
tp8202
asg8187
(lp8203
ssg8165
(dp8204
g8173
(lp8205
(g8165
S'w9'
p8206
S's2'
p8207
S'p'
tp8208
asg8181
(lp8209
(g8165
g8206
tp8210
asg8187
(lp8211
ssg8166
(dp8212
g8173
(lp8213
(g8166
S'w7'
p8214
g8176
S'p'
tp8215
asg8181
(lp8216
(g8166
g8214
tp8217
asg8187
(lp8218
(g8166
g8214
g8162
S'n'
tp8219
assg8167
(dp8220
g8173
(lp8221
(g8167
S'w6'
p8222
S's2'
p8223
S'p'
tp8224
a(g8167
g8222
S's6'
p8225
S'p'
tp8226
asg8181
(lp8227
(g8167
g8222
tp8228
asg8187
(lp8229
ssg8168
(dp8230
g8173
(lp8231
(g8168
S'w16'
p8232
S's12'
p8233
S'p'
tp8234
a(g8168
S'w4'
p8235
g8179
S'p'
tp8236
asg8181
(lp8237
(g8168
g8232
tp8238
a(g8168
g8235
tp8239
asg8187
(lp8240
(g8168
g8235
g8162
S'n'
tp8241
assg8169
(dp8242
g8173
(lp8243
(g8169
S'w18'
p8244
S's1'
p8245
S'p'
tp8246
asg8181
(lp8247
(g8169
g8244
tp8248
asg8187
(lp8249
ssg8170
(dp8250
g8173
(lp8251
(g8170
S'w14'
p8252
S's6'
S'p'
tp8253
asg8181
(lp8254
(g8170
g8252
tp8255
asg8187
(lp8256
ss(lp8257
(g8184
g8196
g8202
g8210
g8217
g8228
g8238
g8248
g8255
tp8258
a(g8202
g8210
g8217
g8228
g8255
(g8163
g8185
g8162
S'n'
t(g8162
g8178
g8168
S'n'
t(g8168
g8232
g8233
S'p'
t(g8169
g8244
g8245
S'p'
ttp8259
a(g8196
g8202
g8210
g8217
g8238
g8248
g8255
(g8167
g8222
g8223
S'p'
t(g8162
g8178
g8179
S'p'
tp8260
tp8261
a(g8196
g8202
g8210
g8238
g8248
g8255
(g8166
g8175
g8162
S'n'
tg8260
(g8167
g8222
g8225
S'p'
tp8262
tp8263
a(g8196
g8202
g8238
g8248
g8255
(g8166
g8214
g8176
S'p'
t(g8165
g8206
g8207
S'p'
tg8260
g8262
tp8264
aF-1
tp8265
a.