(lp1
(((S's3'
p2
S's2'
p3
S's1'
p4
S's7'
p5
t(S'w4'
S'w3'
S'w2'
S'w9'
tt(dp6
g2
(dp7
S'p_paths'
p8
(lp9
(g2
S'w4'
p10
S's2'
p11
S'p'
tp12
a(g2
g10
S's1'
S'p'
tp13
asS'edges'
p14
(lp15
(g2
g10
tp16
asS'n_paths'
p17
(lp18
ssg3
(dp19
g8
(lp20
(g3
S'w3'
p21
S's3'
p22
S'p'
tp23
a(g3
g21
S's2'
p24
S'p'
tp25
asg14
(lp26
(g3
g21
tp27
asg17
(lp28
(g3
g21
g4
S'n'
tp29
assg4
(dp30
g8
(lp31
(g4
S'w3'
p32
g22
S'p'
tp33
a(g4
g32
g24
S'p'
tp34
asg14
(lp35
(g4
g32
tp36
a(g4
S'w2'
tp37
asg17
(lp38
(g4
g32
g3
S'n'
tp39
assg5
(dp40
g8
(lp41
(g5
S'w9'
p42
S's1'
S'p'
tp43
asg14
(lp44
(g5
g42
tp45
asg17
(lp46
ss(lp47
(g16
g27
g37
g45
tp48
a(g16
g37
g45
(g3
g21
g24
S'p'
ttp49
a(g37
g45
(g2
g10
g11
S'p'
t(g3
g21
g22
S'p'
ttp50
aF-1
tp51
a(((S's3'
p52
S's2'
p53
S's1'
p54
S's6'
p55
t(S'w4'
S'w3'
S'w2'
S'w7'
tt(dp56
g52
(dp57
S'p_paths'
p58
(lp59
(g52
S'w4'
p60
S's2'
p61
S'p'
tp62
a(g52
g60
S's1'
S'p'
tp63
asS'edges'
p64
(lp65
(g52
g60
tp66
asS'n_paths'
p67
(lp68
ssg53
(dp69
g58
(lp70
(g53
S'w3'
p71
S's3'
p72
S'p'
tp73
a(g53
g71
S's2'
p74
S'p'
tp75
asg64
(lp76
(g53
g71
tp77
asg67
(lp78
(g53
g71
g54
S'n'
tp79
assg54
(dp80
g58
(lp81
(g54
S'w3'
p82
g72
S'p'
tp83
a(g54
g82
g74
S'p'
tp84
asg64
(lp85
(g54
g82
tp86
a(g54
S'w2'
tp87
asg67
(lp88
(g54
g82
g53
S'n'
tp89
assg55
(dp90
g58
(lp91
(g55
S'w7'
p92
S's3'
S'p'
tp93
asg64
(lp94
(g55
g92
tp95
asg67
(lp96
ss(lp97
(g66
g77
g87
g95
tp98
a(g66
g87
g95
(g53
g71
g74
S'p'
ttp99
a(g87
g95
(g52
g60
g61
S'p'
t(g53
g71
g72
S'p'
ttp100
aF-1
tp101
a(((S's3'
p102
S's2'
p103
S's1'
p104
S's6'
p105
t(S'w4'
S'w3'
S'w8'
S'w7'
tt(dp106
g102
(dp107
S'p_paths'
p108
(lp109
(g102
S'w4'
p110
S's2'
p111
S'p'
tp112
a(g102
g110
S's1'
S'p'
tp113
asS'edges'
p114
(lp115
(g102
g110
tp116
asS'n_paths'
p117
(lp118
ssg103
(dp119
g108
(lp120
(g103
S'w3'
p121
S's3'
p122
S'p'
tp123
a(g103
g121
S's2'
p124
S'p'
tp125
asg114
(lp126
(g103
g121
tp127
asg117
(lp128
(g103
g121
g104
S'n'
tp129
assg104
(dp130
g108
(lp131
(g104
S'w3'
p132
g122
S'p'
tp133
a(g104
g132
g124
S'p'
tp134
asg114
(lp135
(g104
g132
tp136
a(g104
S'w8'
tp137
asg117
(lp138
(g104
g132
g103
S'n'
tp139
assg105
(dp140
g108
(lp141
(g105
S'w7'
p142
S's3'
S'p'
tp143
asg114
(lp144
(g105
g142
tp145
asg117
(lp146
ss(lp147
(g116
g127
g137
g145
tp148
a(g116
g137
g145
(g103
g121
g124
S'p'
ttp149
a(g137
g145
(g102
g110
g111
S'p'
t(g103
g121
g122
S'p'
ttp150
aF-1
tp151
a(((S's3'
p152
S's2'
p153
S's1'
p154
S's5'
p155
t(S'w6'
S'w3'
S'w2'
S'w5'
tt(dp156
g152
(dp157
S'p_paths'
p158
(lp159
sS'edges'
p160
(lp161
(g152
S'w6'
p162
tp163
asS'n_paths'
p164
(lp165
(g152
g162
g155
S'n'
tp166
assg153
(dp167
g158
(lp168
(g153
S'w5'
p169
S's5'
p170
S'p'
tp171
a(g153
S'w3'
p172
S's3'
p173
S'p'
tp174
a(g153
g172
S's2'
p175
S'p'
tp176
asg160
(lp177
(g153
g169
tp178
a(g153
g172
tp179
asg164
(lp180
(g153
g169
g155
S'n'
tp181
a(g153
g172
g154
S'n'
tp182
assg154
(dp183
g158
(lp184
(g154
S'w3'
p185
g173
S'p'
tp186
a(g154
g185
g175
S'p'
tp187
asg160
(lp188
(g154
g185
tp189
a(g154
S'w2'
tp190
asg164
(lp191
(g154
g185
g153
S'n'
tp192
assg155
(dp193
g158
(lp194
(g155
S'w5'
p195
g170
S'p'
tp196
asg160
(lp197
(g155
S'w6'
p198
tp199
a(g155
g195
tp200
asg164
(lp201
(g155
g198
g152
S'n'
tp202
a(g155
g195
g153
S'n'
tp203
ass(lp204
(g163
g179
g190
g200
tp205
a(g163
g190
g200
(g153
g172
g175
S'p'
tp206
tp207
a(g190
(g155
g169
g153
S'n'
t(g153
g172
g173
S'p'
t(g152
g162
g155
S'n'
ttp208
a(g163
g179
g190
(g155
g195
g170
S'p'
tp209
tp210
a(g163
g190
g206
g209
tp211
aF-1
tp212
a(((S's3'
p213
S's2'
p214
S's1'
p215
S's5'
p216
t(S'w4'
S'w3'
S'w2'
S'w6'
tt(dp217
g213
(dp218
S'p_paths'
p219
(lp220
(g213
S'w4'
p221
S's2'
p222
S'p'
tp223
a(g213
g221
S's1'
S'p'
tp224
asS'edges'
p225
(lp226
(g213
S'w6'
p227
tp228
a(g213
g221
tp229
asS'n_paths'
p230
(lp231
(g213
g227
g216
S'n'
tp232
assg214
(dp233
g219
(lp234
(g214
S'w3'
p235
S's3'
p236
S'p'
tp237
a(g214
g235
S's2'
p238
S'p'
tp239
asg225
(lp240
(g214
g235
tp241
asg230
(lp242
(g214
g235
g215
S'n'
tp243
assg215
(dp244
g219
(lp245
(g215
S'w3'
p246
g236
S'p'
tp247
a(g215
g246
g238
S'p'
tp248
asg225
(lp249
(g215
g246
tp250
a(g215
S'w2'
tp251
asg230
(lp252
(g215
g246
g214
S'n'
tp253
assg216
(dp254
g219
(lp255
sg225
(lp256
(g216
S'w6'
p257
tp258
asg230
(lp259
(g216
g257
g213
S'n'
tp260
ass(lp261
(g229
g241
g251
g258
tp262
a(g229
g251
g258
(g214
g235
g238
S'p'
ttp263
a(g251
g258
(g213
g221
g222
S'p'
t(g214
g235
g236
S'p'
ttp264
aF-1
tp265
a(((S's3'
p266
S's2'
p267
S's1'
p268
S's5'
p269
t(S'w4'
S'w3'
S'w2'
S'w8'
tt(dp270
g266
(dp271
S'p_paths'
p272
(lp273
(g266
S'w4'
p274
S's2'
p275
S'p'
tp276
a(g266
g274
S's1'
S'p'
tp277
asS'edges'
p278
(lp279
(g266
g274
tp280
asS'n_paths'
p281
(lp282
ssg267
(dp283
g272
(lp284
(g267
S'w3'
p285
S's3'
p286
S'p'
tp287
a(g267
g285
S's2'
p288
S'p'
tp289
asg278
(lp290
(g267
g285
tp291
asg281
(lp292
(g267
g285
g268
S'n'
tp293
assg268
(dp294
g272
(lp295
(g268
S'w3'
p296
g286
S'p'
tp297
a(g268
g296
g288
S'p'
tp298
asg278
(lp299
(g268
g296
tp300
a(g268
S'w2'
tp301
a(g268
S'w8'
p302
tp303
asg281
(lp304
(g268
g296
g267
S'n'
tp305
a(g268
g302
g269
S'n'
tp306
assg269
(dp307
g272
(lp308
sg278
(lp309
(g269
S'w8'
p310
tp311
asg281
(lp312
(g269
g310
g268
S'n'
tp313
ass(lp314
(g280
g291
g301
g311
tp315
a(g280
g301
g311
(g267
g285
g288
S'p'
ttp316
a(g301
g311
(g266
g274
g275
S'p'
t(g267
g285
g286
S'p'
ttp317
aF-1
tp318
a(((S's3'
p319
S's2'
p320
S's7'
p321
S's6'
p322
t(S'w4'
S'w3'
S'w9'
S'w7'
tt(dp323
g319
(dp324
S'p_paths'
p325
(lp326
(g319
S'w4'
p327
S's2'
p328
S'p'
tp329
asS'edges'
p330
(lp331
(g319
g327
tp332
asS'n_paths'
p333
(lp334
ssg320
(dp335
g325
(lp336
(g320
S'w3'
p337
S's3'
p338
S'p'
tp339
a(g320
g337
S's2'
p340
S'p'
tp341
asg330
(lp342
(g320
g337
tp343
asg333
(lp344
ssg321
(dp345
g325
(lp346
sg330
(lp347
(g321
S'w9'
tp348
asg333
(lp349
ssg322
(dp350
g325
(lp351
(g322
S'w7'
p352
S's3'
S'p'
tp353
asg330
(lp354
(g322
g352
tp355
asg333
(lp356
ss(lp357
(g332
g343
g348
g355
tp358
a(g332
g348
g355
(g320
g337
g340
S'p'
ttp359
a(g348
g355
(g319
g327
g328
S'p'
t(g320
g337
g338
S'p'
ttp360
aF-1
tp361
a(((S's3'
p362
S's2'
p363
S's7'
p364
S's5'
p365
t(S'w6'
S'w3'
S'w9'
S'w5'
tt(dp366
g362
(dp367
S'p_paths'
p368
(lp369
sS'edges'
p370
(lp371
(g362
S'w6'
p372
tp373
asS'n_paths'
p374
(lp375
(g362
g372
g365
S'n'
tp376
assg363
(dp377
g368
(lp378
(g363
S'w5'
p379
S's5'
p380
S'p'
tp381
a(g363
S'w3'
p382
S's3'
p383
S'p'
tp384
a(g363
g382
S's2'
p385
S'p'
tp386
asg370
(lp387
(g363
g379
tp388
a(g363
g382
tp389
asg374
(lp390
(g363
g379
g365
S'n'
tp391
assg364
(dp392
g368
(lp393
(g364
S'w9'
p394
S's5'
S'p'
tp395
asg370
(lp396
(g364
g394
tp397
asg374
(lp398
ssg365
(dp399
g368
(lp400
(g365
S'w5'
p401
g380
S'p'
tp402
asg370
(lp403
(g365
S'w6'
p404
tp405
a(g365
g401
tp406
asg374
(lp407
(g365
g404
g362
S'n'
tp408
a(g365
g401
g363
S'n'
tp409
ass(lp410
(g373
g389
g397
g406
tp411
a(g373
g397
g406
(g363
g382
g385
S'p'
tp412
tp413
a(g397
(g365
g379
g363
S'n'
t(g363
g382
g383
S'p'
t(g362
g372
g365
S'n'
ttp414
a(g373
g389
g397
(g365
g401
g380
S'p'
tp415
tp416
a(g373
g397
g412
g415
tp417
aF-1
tp418
a(((S's3'
p419
S's2'
p420
S's7'
p421
S's5'
p422
t(S'w4'
S'w3'
S'w9'
S'w6'
tt(dp423
g419
(dp424
S'p_paths'
p425
(lp426
(g419
S'w4'
p427
S's2'
p428
S'p'
tp429
asS'edges'
p430
(lp431
(g419
S'w6'
p432
tp433
a(g419
g427
tp434
asS'n_paths'
p435
(lp436
(g419
g432
g422
S'n'
tp437
assg420
(dp438
g425
(lp439
(g420
S'w3'
p440
S's3'
p441
S'p'
tp442
a(g420
g440
S's2'
p443
S'p'
tp444
asg430
(lp445
(g420
g440
tp446
asg435
(lp447
ssg421
(dp448
g425
(lp449
(g421
S'w9'
p450
S's5'
S'p'
tp451
asg430
(lp452
(g421
g450
tp453
asg435
(lp454
ssg422
(dp455
g425
(lp456
sg430
(lp457
(g422
S'w6'
p458
tp459
asg435
(lp460
(g422
g458
g419
S'n'
tp461
ass(lp462
(g434
g446
g453
g459
tp463
a(g434
g453
g459
(g420
g440
g443
S'p'
ttp464
a(g453
g459
(g420
g440
g441
S'p'
t(g419
g427
g428
S'p'
ttp465
aF-1
tp466
a(((S's3'
p467
S's2'
p468
S's6'
p469
S's5'
p470
t(S'w4'
S'w3'
S'w7'
S'w8'
tt(dp471
g467
(dp472
S'p_paths'
p473
(lp474
(g467
S'w4'
p475
S's2'
p476
S'p'
tp477
asS'edges'
p478
(lp479
(g467
g475
tp480
asS'n_paths'
p481
(lp482
ssg468
(dp483
g473
(lp484
(g468
S'w3'
p485
S's3'
p486
S'p'
tp487
a(g468
g485
S's2'
p488
S'p'
tp489
asg478
(lp490
(g468
g485
tp491
asg481
(lp492
ssg469
(dp493
g473
(lp494
(g469
S'w7'
p495
S's3'
S'p'
tp496
a(g469
g495
S's5'
S'p'
tp497
asg478
(lp498
(g469
g495
tp499
asg481
(lp500
ssg470
(dp501
g473
(lp502
sg478
(lp503
(g470
S'w8'
tp504
asg481
(lp505
ss(lp506
(g480
g491
g499
g504
tp507
a(g480
g499
g504
(g468
g485
g488
S'p'
ttp508
a(g499
g504
(g467
g475
g476
S'p'
t(g468
g485
g486
S'p'
ttp509
aF-1
tp510
a(((S's3'
p511
S's1'
p512
S's5'
p513
S's4'
p514
t(S'w6'
S'w2'
S'w5'
S'w4'
tt(dp515
g511
(dp516
S'p_paths'
p517
(lp518
(g511
S'w4'
p519
S's1'
p520
S'p'
tp521
asS'edges'
p522
(lp523
(g511
S'w6'
p524
tp525
a(g511
g519
tp526
asS'n_paths'
p527
(lp528
(g511
g524
g513
S'n'
tp529
a(g511
g519
g514
S'n'
tp530
assg512
(dp531
g517
(lp532
sg522
(lp533
(g512
S'w2'
tp534
asg527
(lp535
ssg513
(dp536
g517
(lp537
(g513
S'w5'
p538
S's5'
p539
S'p'
tp540
a(g513
g538
S's4'
p541
S'p'
tp542
asg522
(lp543
(g513
S'w6'
p544
tp545
a(g513
g538
tp546
asg527
(lp547
(g513
g544
g511
S'n'
tp548
assg514
(dp549
g517
(lp550
(g514
S'w4'
p551
g520
S'p'
tp552
asg522
(lp553
(g514
g551
tp554
asg527
(lp555
(g514
g551
g511
S'n'
tp556
ass(lp557
(g525
g534
g546
g554
tp558
a(g534
(g514
g519
g511
S'n'
t(g511
g524
g513
S'n'
t(g513
g538
g541
S'p'
ttp559
a(g525
g534
g554
(g513
g538
g539
S'p'
ttp560
aF-1
tp561
a(((S's3'
p562
S's7'
p563
S's5'
p564
S's4'
p565
t(S'w6'
S'w9'
S'w5'
S'w4'
tt(dp566
g562
(dp567
S'p_paths'
p568
(lp569
sS'edges'
p570
(lp571
(g562
S'w6'
p572
tp573
a(g562
S'w4'
p574
tp575
asS'n_paths'
p576
(lp577
(g562
g572
g564
S'n'
tp578
a(g562
g574
g565
S'n'
tp579
assg563
(dp580
g568
(lp581
(g563
S'w9'
p582
S's5'
S'p'
tp583
asg570
(lp584
(g563
g582
tp585
asg576
(lp586
ssg564
(dp587
g568
(lp588
(g564
S'w5'
p589
S's5'
p590
S'p'
tp591
a(g564
g589
S's4'
p592
S'p'
tp593
asg570
(lp594
(g564
S'w6'
p595
tp596
a(g564
g589
tp597
asg576
(lp598
(g564
g595
g562
S'n'
tp599
assg565
(dp600
g568
(lp601
sg570
(lp602
(g565
S'w4'
p603
tp604
asg576
(lp605
(g565
g603
g562
S'n'
tp606
ass(lp607
(g573
g585
g597
g604
tp608
a(g585
(g565
g574
g562
S'n'
t(g562
g572
g564
S'n'
t(g564
g589
g592
S'p'
ttp609
a(g573
g585
g604
(g564
g589
g590
S'p'
ttp610
aF-1
tp611
a.