(lp1
(((S's3'
p2
S's2'
p3
t(S'w4'
S'w3'
tt(dp4
g2
(dp5
S'p_paths'
p6
(lp7
(g2
S'w4'
p8
S's2'
p9
S'p'
tp10
asS'edges'
p11
(lp12
(g2
g8
tp13
asS'n_paths'
p14
(lp15
ssg3
(dp16
g6
(lp17
(g3
S'w3'
p18
S's3'
p19
S'p'
tp20
a(g3
g18
S's2'
p21
S'p'
tp22
asg11
(lp23
(g3
g18
tp24
asg14
(lp25
ss(lp26
(g13
g24
tp27
a(g13
(g3
g18
g21
S'p'
ttp28
a((g2
g8
g9
S'p'
t(g3
g18
g19
S'p'
ttp29
aF-1
tp30
a.