(lp1
(((S's9'
p2
S's8'
p3
S's2'
p4
S's1'
p5
S's5'
p6
S's4'
p7
t(S'w12'
S'w9'
S'w4'
S'w1'
S'w6'
S'w10'
tt(dp8
g2
(dp9
S'p_paths'
p10
(lp11
(g2
S'w12'
p12
S's1'
p13
S'p'
tp14
asS'edges'
p15
(lp16
(g2
g12
tp17
asS'n_paths'
p18
(lp19
ssg3
(dp20
g10
(lp21
(g3
S'w9'
p22
S's4'
S'p'
tp23
asg15
(lp24
(g3
g22
tp25
asg18
(lp26
ssg4
(dp27
g10
(lp28
(g4
S'w4'
p29
S's5'
p30
S'p'
tp31
asg15
(lp32
(g4
g29
tp33
a(g4
S'w1'
p34
tp35
asg18
(lp36
(g4
g29
g7
S'n'
tp37
a(g4
g34
g5
S'n'
tp38
assg5
(dp39
g10
(lp40
sg15
(lp41
(g5
S'w1'
p42
tp43
asg18
(lp44
(g5
g42
g4
S'n'
tp45
assg6
(dp46
g10
(lp47
(g6
S'w6'
p48
S's2'
p49
S'p'
tp50
asg15
(lp51
(g6
g48
tp52
asg18
(lp53
ssg7
(dp54
g10
(lp55
(g7
S'w4'
p56
g30
S'p'
tp57
a(g7
S'w10'
p58
S's9'
p59
S'p'
tp60
asg15
(lp61
(g7
g56
tp62
a(g7
g58
tp63
asg18
(lp64
(g7
g56
g4
S'n'
tp65
ass(lp66
(g17
g25
g33
g43
g52
g63
tp67
a(g25
g52
(g5
g34
g4
S'n'
t(g4
g29
g7
S'n'
t(g7
g58
g59
S'p'
t(g2
g12
g13
S'p'
ttp68
a(g17
g25
g43
g63
(g6
g48
g49
S'p'
t(g4
g29
g30
S'p'
ttp69
aF-1
tp70
a(((S's9'
p71
S's8'
p72
S's2'
p73
S's1'
p74
S's5'
p75
S's4'
p76
t(S'w12'
S'w8'
S'w4'
S'w1'
S'w6'
S'w10'
tt(dp77
g71
(dp78
S'p_paths'
p79
(lp80
(g71
S'w12'
p81
S's1'
p82
S'p'
tp83
asS'edges'
p84
(lp85
(g71
g81
tp86
asS'n_paths'
p87
(lp88
ssg72
(dp89
g79
(lp90
sg84
(lp91
(g72
S'w8'
tp92
asg87
(lp93
ssg73
(dp94
g79
(lp95
(g73
S'w4'
p96
S's5'
p97
S'p'
tp98
asg84
(lp99
(g73
g96
tp100
a(g73
S'w1'
p101
tp102
asg87
(lp103
(g73
g96
g76
S'n'
tp104
a(g73
g101
g74
S'n'
tp105
assg74
(dp106
g79
(lp107
sg84
(lp108
(g74
S'w1'
p109
tp110
asg87
(lp111
(g74
g109
g73
S'n'
tp112
assg75
(dp113
g79
(lp114
(g75
S'w6'
p115
S's2'
p116
S'p'
tp117
asg84
(lp118
(g75
g115
tp119
asg87
(lp120
ssg76
(dp121
g79
(lp122
(g76
S'w4'
p123
g97
S'p'
tp124
a(g76
S'w10'
p125
S's9'
p126
S'p'
tp127
asg84
(lp128
(g76
g123
tp129
a(g76
g125
tp130
asg87
(lp131
(g76
g123
g73
S'n'
tp132
ass(lp133
(g86
g92
g100
g110
g119
g130
tp134
a(g92
g119
(g74
g101
g73
S'n'
t(g73
g96
g76
S'n'
t(g76
g125
g126
S'p'
t(g71
g81
g82
S'p'
ttp135
a(g86
g92
g110
g130
(g75
g115
g116
S'p'
t(g73
g96
g97
S'p'
ttp136
aF-1
tp137
a(((S's9'
p138
S's3'
p139
S's7'
p140
S's6'
p141
S's5'
p142
S's4'
p143
t(S'w12'
S'w3'
S'w10'
S'w7'
S'w6'
S'w4'
tt(dp144
g138
(dp145
S'p_paths'
p146
(lp147
(g138
S'w12'
p148
S's7'
p149
S'p'
tp150
asS'edges'
p151
(lp152
(g138
g148
tp153
asS'n_paths'
p154
(lp155
ssg139
(dp156
g146
(lp157
(g139
S'w3'
p158
S's4'
S'p'
tp159
asg151
(lp160
(g139
g158
tp161
asg154
(lp162
ssg140
(dp163
g146
(lp164
(g140
S'w10'
p165
S's9'
p166
S'p'
tp167
asg151
(lp168
(g140
S'w7'
p169
tp170
a(g140
g165
tp171
asg154
(lp172
(g140
g169
g141
S'n'
tp173
a(g140
g165
g143
S'n'
tp174
assg141
(dp175
g146
(lp176
sg151
(lp177
(g141
S'w7'
p178
tp179
asg154
(lp180
(g141
g178
g140
S'n'
tp181
assg142
(dp182
g146
(lp183
(g142
S'w6'
p184
S's6'
p185
S'p'
tp186
asg151
(lp187
(g142
g184
tp188
asg154
(lp189
ssg143
(dp190
g146
(lp191
(g143
S'w4'
p192
S's5'
p193
S'p'
tp194
a(g143
S'w10'
p195
g166
S'p'
tp196
asg151
(lp197
(g143
g192
tp198
a(g143
g195
tp199
asg154
(lp200
(g143
g195
g140
S'n'
tp201
ass(lp202
(g153
g161
g171
g179
g188
g198
tp203
a(g153
g161
(g140
g165
g143
S'n'
t(g143
g192
g193
S'p'
t(g142
g184
g185
S'p'
t(g141
g169
g140
S'n'
ttp204
a(g161
g179
g188
g198
(g138
g148
g149
S'p'
t(g140
g165
g166
S'p'
ttp205
aF-1
tp206
a(((S's9'
p207
S's3'
p208
S's7'
p209
S's6'
p210
S's5'
p211
S's4'
p212
t(S'w12'
S'w2'
S'w10'
S'w7'
S'w6'
S'w4'
tt(dp213
g207
(dp214
S'p_paths'
p215
(lp216
(g207
S'w12'
p217
S's7'
p218
S'p'
tp219
asS'edges'
p220
(lp221
(g207
g217
tp222
asS'n_paths'
p223
(lp224
ssg208
(dp225
g215
(lp226
sg220
(lp227
(g208
S'w2'
tp228
asg223
(lp229
ssg209
(dp230
g215
(lp231
(g209
S'w10'
p232
S's9'
p233
S'p'
tp234
asg220
(lp235
(g209
S'w7'
p236
tp237
a(g209
g232
tp238
asg223
(lp239
(g209
g236
g210
S'n'
tp240
a(g209
g232
g212
S'n'
tp241
assg210
(dp242
g215
(lp243
sg220
(lp244
(g210
S'w7'
p245
tp246
asg223
(lp247
(g210
g245
g209
S'n'
tp248
assg211
(dp249
g215
(lp250
(g211
S'w6'
p251
S's6'
p252
S'p'
tp253
asg220
(lp254
(g211
g251
tp255
asg223
(lp256
ssg212
(dp257
g215
(lp258
(g212
S'w4'
p259
S's5'
p260
S'p'
tp261
a(g212
S'w10'
p262
g233
S'p'
tp263
asg220
(lp264
(g212
g259
tp265
a(g212
g262
tp266
asg223
(lp267
(g212
g262
g209
S'n'
tp268
ass(lp269
(g222
g228
g238
g246
g255
g265
tp270
a(g222
g228
(g209
g232
g212
S'n'
t(g212
g259
g260
S'p'
t(g211
g251
g252
S'p'
t(g210
g236
g209
S'n'
ttp271
a(g228
g246
g255
g265
(g207
g217
g218
S'p'
t(g209
g232
g233
S'p'
ttp272
aF-1
tp273
a(((S's9'
p274
S's2'
p275
S's1'
p276
S's7'
p277
S's6'
p278
S's5'
p279
t(S'w12'
S'w4'
S'w1'
S'w10'
S'w7'
S'w6'
tt(dp280
g274
(dp281
S'p_paths'
p282
(lp283
(g274
S'w12'
p284
S's1'
p285
S'p'
tp286
a(g274
g284
S's7'
p287
S'p'
tp288
asS'edges'
p289
(lp290
(g274
g284
tp291
asS'n_paths'
p292
(lp293
ssg275
(dp294
g282
(lp295
(g275
S'w4'
p296
S's5'
p297
S'p'
tp298
asg289
(lp299
(g275
g296
tp300
a(g275
S'w1'
p301
tp302
asg292
(lp303
(g275
g301
g276
S'n'
tp304
assg276
(dp305
g282
(lp306
sg289
(lp307
(g276
S'w1'
p308
tp309
asg292
(lp310
(g276
g308
g275
S'n'
tp311
assg277
(dp312
g282
(lp313
(g277
S'w10'
p314
S's9'
p315
S'p'
tp316
asg289
(lp317
(g277
S'w7'
p318
tp319
a(g277
g314
tp320
asg292
(lp321
(g277
g318
g278
S'n'
tp322
assg278
(dp323
g282
(lp324
sg289
(lp325
(g278
S'w7'
p326
tp327
asg292
(lp328
(g278
g326
g277
S'n'
tp329
assg279
(dp330
g282
(lp331
(g279
S'w6'
p332
S's2'
p333
S'p'
tp334
a(g279
g332
S's6'
p335
S'p'
tp336
asg289
(lp337
(g279
g332
tp338
asg292
(lp339
ss(lp340
(g291
g300
g309
g320
g327
g338
tp341
a((g276
g301
g275
S'n'
t(g275
g296
g297
S'p'
tp342
(g279
g332
g335
S'p'
t(g278
g318
g277
S'n'
t(g277
g314
g315
S'p'
tp343
(g274
g284
g285
S'p'
ttp344
a(g291
g309
g320
g327
(g279
g332
g333
S'p'
tp345
g342
tp346
a(g300
g309
g327
g338
(g274
g284
g287
S'p'
tp347
g343
tp348
a(g309
g327
g345
g342
g347
g343
tp349
aF-1
tp350
a(((S's9'
p351
S's2'
p352
S's1'
p353
S's7'
p354
S's5'
p355
S's4'
p356
t(S'w12'
S'w4'
S'w1'
S'w7'
S'w6'
S'w10'
tt(dp357
g351
(dp358
S'p_paths'
p359
(lp360
(g351
S'w12'
p361
S's1'
p362
S'p'
tp363
a(g351
g361
S's7'
S'p'
tp364
asS'edges'
p365
(lp366
(g351
g361
tp367
asS'n_paths'
p368
(lp369
ssg352
(dp370
g359
(lp371
(g352
S'w4'
p372
S's5'
p373
S'p'
tp374
asg365
(lp375
(g352
g372
tp376
a(g352
S'w1'
p377
tp378
asg368
(lp379
(g352
g372
g356
S'n'
tp380
a(g352
g377
g353
S'n'
tp381
assg353
(dp382
g359
(lp383
sg365
(lp384
(g353
S'w1'
p385
tp386
asg368
(lp387
(g353
g385
g352
S'n'
tp388
assg354
(dp389
g359
(lp390
(g354
S'w10'
p391
S's9'
p392
S'p'
tp393
asg365
(lp394
(g354
S'w7'
tp395
a(g354
g391
tp396
asg368
(lp397
(g354
g391
g356
S'n'
tp398
assg355
(dp399
g359
(lp400
(g355
S'w6'
p401
S's2'
p402
S'p'
tp403
asg365
(lp404
(g355
g401
tp405
asg368
(lp406
ssg356
(dp407
g359
(lp408
(g356
S'w4'
p409
g373
S'p'
tp410
a(g356
S'w10'
p411
g392
S'p'
tp412
asg365
(lp413
(g356
g409
tp414
a(g356
g411
tp415
asg368
(lp416
(g356
g409
g352
S'n'
tp417
a(g356
g411
g354
S'n'
tp418
ass(lp419
(g367
g376
g386
g395
g405
g415
tp420
a(g395
g405
(g353
g377
g352
S'n'
t(g352
g372
g356
S'n'
t(g356
g411
g392
S'p'
t(g351
g361
g362
S'p'
ttp421
a(g367
g386
g395
g415
(g355
g401
g402
S'p'
t(g352
g372
g373
S'p'
ttp422
aF-1
tp423
a(((S's9'
p424
S's2'
p425
S's1'
p426
S's6'
p427
S's5'
p428
S's4'
p429
t(S'w12'
S'w4'
S'w1'
S'w7'
S'w6'
S'w10'
tt(dp430
g424
(dp431
S'p_paths'
p432
(lp433
(g424
S'w12'
p434
S's1'
p435
S'p'
tp436
asS'edges'
p437
(lp438
(g424
g434
tp439
asS'n_paths'
p440
(lp441
ssg425
(dp442
g432
(lp443
(g425
S'w4'
p444
S's5'
p445
S'p'
tp446
asg437
(lp447
(g425
g444
tp448
a(g425
S'w1'
p449
tp450
asg440
(lp451
(g425
g444
g429
S'n'
tp452
a(g425
g449
g426
S'n'
tp453
assg426
(dp454
g432
(lp455
sg437
(lp456
(g426
S'w1'
p457
tp458
asg440
(lp459
(g426
g457
g425
S'n'
tp460
assg427
(dp461
g432
(lp462
sg437
(lp463
(g427
S'w7'
tp464
asg440
(lp465
ssg428
(dp466
g432
(lp467
(g428
S'w6'
p468
S's2'
p469
S'p'
tp470
a(g428
g468
S's6'
S'p'
tp471
asg437
(lp472
(g428
g468
tp473
asg440
(lp474
ssg429
(dp475
g432
(lp476
(g429
S'w4'
p477
g445
S'p'
tp478
a(g429
S'w10'
p479
S's9'
p480
S'p'
tp481
asg437
(lp482
(g429
g477
tp483
a(g429
g479
tp484
asg440
(lp485
(g429
g477
g425
S'n'
tp486
ass(lp487
(g439
g448
g458
g464
g473
g484
tp488
a(g464
g473
(g426
g449
g425
S'n'
t(g425
g444
g429
S'n'
t(g429
g479
g480
S'p'
t(g424
g434
g435
S'p'
ttp489
a(g439
g458
g464
g484
(g428
g468
g469
S'p'
t(g425
g444
g445
S'p'
ttp490
aF-1
tp491
a(((S's9'
p492
S's2'
p493
S's7'
p494
S's6'
p495
S's5'
p496
S's4'
p497
t(S'w12'
S'w1'
S'w10'
S'w7'
S'w6'
S'w4'
tt(dp498
g492
(dp499
S'p_paths'
p500
(lp501
(g492
S'w12'
p502
S's7'
p503
S'p'
tp504
asS'edges'
p505
(lp506
(g492
g502
tp507
asS'n_paths'
p508
(lp509
ssg493
(dp510
g500
(lp511
(g493
S'w4'
p512
S's5'
p513
S'p'
tp514
asg505
(lp515
(g493
g512
tp516
a(g493
S'w1'
tp517
asg508
(lp518
(g493
g512
g497
S'n'
tp519
assg494
(dp520
g500
(lp521
(g494
S'w10'
p522
S's9'
p523
S'p'
tp524
asg505
(lp525
(g494
S'w7'
p526
tp527
a(g494
g522
tp528
asg508
(lp529
(g494
g526
g495
S'n'
tp530
a(g494
g522
g497
S'n'
tp531
assg495
(dp532
g500
(lp533
sg505
(lp534
(g495
S'w7'
p535
tp536
asg508
(lp537
(g495
g535
g494
S'n'
tp538
assg496
(dp539
g500
(lp540
(g496
S'w6'
p541
S's2'
S'p'
tp542
a(g496
g541
S's6'
p543
S'p'
tp544
asg505
(lp545
(g496
g541
tp546
asg508
(lp547
ssg497
(dp548
g500
(lp549
(g497
S'w4'
p550
g513
S'p'
tp551
a(g497
S'w10'
p552
g523
S'p'
tp553
asg505
(lp554
(g497
g550
tp555
a(g497
g552
tp556
asg508
(lp557
(g497
g550
g493
S'n'
tp558
a(g497
g552
g494
S'n'
tp559
ass(lp560
(g507
g517
g528
g536
g546
g555
tp561
a(g507
g517
(g494
g522
g497
S'n'
t(g497
g550
g513
S'p'
t(g496
g541
g543
S'p'
t(g495
g526
g494
S'n'
ttp562
a(g517
g536
g546
g555
(g492
g502
g503
S'p'
t(g494
g522
g523
S'p'
ttp563
aF-1
tp564
a(((S's9'
p565
S's1'
p566
S's7'
p567
S's6'
p568
S's5'
p569
S's4'
p570
t(S'w12'
S'w1'
S'w10'
S'w7'
S'w6'
S'w4'
tt(dp571
g565
(dp572
S'p_paths'
p573
(lp574
(g565
S'w12'
p575
S's1'
S'p'
tp576
a(g565
g575
S's7'
p577
S'p'
tp578
asS'edges'
p579
(lp580
(g565
g575
tp581
asS'n_paths'
p582
(lp583
ssg566
(dp584
g573
(lp585
sg579
(lp586
(g566
S'w1'
tp587
asg582
(lp588
ssg567
(dp589
g573
(lp590
(g567
S'w10'
p591
S's9'
p592
S'p'
tp593
asg579
(lp594
(g567
S'w7'
p595
tp596
a(g567
g591
tp597
asg582
(lp598
(g567
g595
g568
S'n'
tp599
a(g567
g591
g570
S'n'
tp600
assg568
(dp601
g573
(lp602
sg579
(lp603
(g568
S'w7'
p604
tp605
asg582
(lp606
(g568
g604
g567
S'n'
tp607
assg569
(dp608
g573
(lp609
(g569
S'w6'
p610
S's6'
p611
S'p'
tp612
asg579
(lp613
(g569
g610
tp614
asg582
(lp615
ssg570
(dp616
g573
(lp617
(g570
S'w4'
p618
S's5'
p619
S'p'
tp620
a(g570
S'w10'
p621
g592
S'p'
tp622
asg579
(lp623
(g570
g618
tp624
a(g570
g621
tp625
asg582
(lp626
(g570
g621
g567
S'n'
tp627
ass(lp628
(g581
g587
g597
g605
g614
g624
tp629
a(g581
g587
(g567
g591
g570
S'n'
t(g570
g618
g619
S'p'
t(g569
g610
g611
S'p'
t(g568
g595
g567
S'n'
ttp630
a(g587
g605
g614
g624
(g565
g575
g577
S'p'
t(g567
g591
g592
S'p'
ttp631
aF-1
tp632
a.